Archive member included to satisfy reference by file (symbol)

arch/arm/lib/lib.a(lib1funcs.o)
                              arch/arm/mach-omap2/built-in.o (__aeabi_uidiv)
arch/arm/lib/lib.a(div0.o)    arch/arm/lib/lib.a(lib1funcs.o) (__div0)

Discarded input sections

 .data          0x0000000000000000        0x0 arch/arm/cpu/armv7/start.o
 .bss           0x0000000000000000        0x0 arch/arm/cpu/armv7/start.o
 .text          0x0000000000000000        0x0 board/ti/am335x/built-in.o
 .text.do_board_detect
                0x0000000000000000       0x30 board/ti/am335x/built-in.o
 .rodata.do_board_detect.str1.1
                0x0000000000000000       0x1b board/ti/am335x/built-in.o
 .data          0x0000000000000000        0x0 board/ti/am335x/built-in.o
 .bss           0x0000000000000000        0x0 board/ti/am335x/built-in.o
 .text.mmu_page_table_flush
                0x0000000000000000       0x1e arch/arm/cpu/armv7/built-in.o
 .text.v7_arch_cp15_set_l2aux_ctrl
                0x0000000000000000        0x6 arch/arm/cpu/armv7/built-in.o
 .text.v7_arch_cp15_set_acr
                0x0000000000000000        0x6 arch/arm/cpu/armv7/built-in.o
 .text.sdelay   0x0000000000000000        0x6 arch/arm/cpu/armv7/built-in.o
 .text.wait_on_value
                0x0000000000000000       0x1e arch/arm/cpu/armv7/built-in.o
 .data          0x0000000000000000        0x0 arch/arm/cpu/armv7/built-in.o
 .bss           0x0000000000000000        0x0 arch/arm/cpu/armv7/built-in.o
 .text.armv7_boot_nonsec_default
                0x0000000000000000        0x4 arch/arm/lib/built-in.o
 .text.enable_caches
                0x0000000000000000        0xc arch/arm/lib/built-in.o
 .text.invalidate_dcache_range
                0x0000000000000000        0x2 arch/arm/lib/built-in.o
 .text.flush_dcache_range
                0x0000000000000000        0x2 arch/arm/lib/built-in.o
 .text.flush_dcache_all
                0x0000000000000000        0xa arch/arm/lib/built-in.o
 .text.invalidate_l2_cache
                0x0000000000000000        0xc arch/arm/lib/built-in.o
 .text.arm_init_before_mmu
                0x0000000000000000        0x2 arch/arm/lib/built-in.o
 .text.arm_init_domains
                0x0000000000000000        0x2 arch/arm/lib/built-in.o
 .text.mmu_page_table_flush
                0x0000000000000000        0x2 arch/arm/lib/built-in.o
 .text.mmu_set_region_dcache_behaviour
                0x0000000000000000       0x40 arch/arm/lib/built-in.o
 .text.dram_bank_mmu_setup
                0x0000000000000000       0x2a arch/arm/lib/built-in.o
 .text.icache_status
                0x0000000000000000        0xa arch/arm/lib/built-in.o
 .text.fdt_psci
                0x0000000000000000        0x4 arch/arm/lib/built-in.o
 .rodata.enable_caches.str1.1
                0x0000000000000000       0x1d arch/arm/lib/built-in.o
 .data          0x0000000000000000        0x0 arch/arm/lib/built-in.o
 .__secure_end  0x0000000000000000        0x0 arch/arm/lib/built-in.o
 .__secure_stack_end
                0x0000000000000000        0x0 arch/arm/lib/built-in.o
 .__secure_stack_start
                0x0000000000000000        0x0 arch/arm/lib/built-in.o
 .__secure_start
                0x0000000000000000        0x0 arch/arm/lib/built-in.o
 .bss           0x0000000000000000        0x0 arch/arm/lib/built-in.o
 .text.get_dpll_mpu_params
                0x0000000000000000        0x8 arch/arm/mach-omap2/built-in.o
 .text.get_dpll_core_params
                0x0000000000000000        0x8 arch/arm/mach-omap2/built-in.o
 .text.get_dpll_per_params
                0x0000000000000000        0x8 arch/arm/mach-omap2/built-in.o
 .text.setup_clocks_for_console
                0x0000000000000000       0x7c arch/arm/mach-omap2/built-in.o
 .text.enable_basic_clocks
                0x0000000000000000       0x44 arch/arm/mach-omap2/built-in.o
 .text.set_mpu_spreadspectrum
                0x0000000000000000       0xc0 arch/arm/mach-omap2/built-in.o
 .text.do_setup_dpll
                0x0000000000000000       0xe0 arch/arm/mach-omap2/built-in.o
 .text.do_enable_clocks
                0x0000000000000000       0x64 arch/arm/mach-omap2/built-in.o
 .text.do_disable_clocks
                0x0000000000000000       0x6c arch/arm/mach-omap2/built-in.o
 .text.scale_vcores
                0x0000000000000000        0x2 arch/arm/mach-omap2/built-in.o
 .text.setup_early_clocks
                0x0000000000000000       0x12 arch/arm/mach-omap2/built-in.o
 .text.prcm_init
                0x0000000000000000       0x5c arch/arm/mach-omap2/built-in.o
 .text.get_sysboot_value
                0x0000000000000000       0x14 arch/arm/mach-omap2/built-in.o
 .text.am335x_get_efuse_mpu_max_freq
                0x0000000000000000       0x82 arch/arm/mach-omap2/built-in.o
 .text.am335x_get_tps65910_mpu_vdd
                0x0000000000000000       0x28 arch/arm/mach-omap2/built-in.o
 .text.configure_mr
                0x0000000000000000       0x88 arch/arm/mach-omap2/built-in.o
 .text.config_sdram_emif4d5
                0x0000000000000000      0x15c arch/arm/mach-omap2/built-in.o
 .text.config_sdram
                0x0000000000000000       0x80 arch/arm/mach-omap2/built-in.o
 .text.set_sdram_timings
                0x0000000000000000       0x3c arch/arm/mach-omap2/built-in.o
 .text.config_ddr_phy
                0x0000000000000000      0x1ac arch/arm/mach-omap2/built-in.o
 .text.config_cmd_ctrl
                0x0000000000000000       0x44 arch/arm/mach-omap2/built-in.o
 .text.config_ddr_data
                0x0000000000000000       0x4c arch/arm/mach-omap2/built-in.o
 .text.config_io_ctrl
                0x0000000000000000       0x34 arch/arm/mach-omap2/built-in.o
 .text.configure_module_pin_mux
                0x0000000000000000       0x20 arch/arm/mach-omap2/built-in.o
 .text.warm_reset
                0x0000000000000000       0x1c arch/arm/mach-omap2/built-in.o
 .text.setup_warmreset_time
                0x0000000000000000        0x2 arch/arm/mach-omap2/built-in.o
 .text.do_cancel_out
                0x0000000000000000       0x44 arch/arm/mach-omap2/built-in.o
 .text.cancel_out
                0x0000000000000000       0x62 arch/arm/mach-omap2/built-in.o
 .text.omap_die_id
                0x0000000000000000        0xc arch/arm/mach-omap2/built-in.o
 .text.omap_die_id_serial
                0x0000000000000000       0x4c arch/arm/mach-omap2/built-in.o
 .text.omap_die_id_get_board_serial
                0x0000000000000000       0x24 arch/arm/mach-omap2/built-in.o
 .text.omap_die_id_usbethaddr
                0x0000000000000000       0x54 arch/arm/mach-omap2/built-in.o
 .text.omap_die_id_display
                0x0000000000000000       0x2c arch/arm/mach-omap2/built-in.o
 .text.omap_sys_boot_device
                0x0000000000000000        0x4 arch/arm/mach-omap2/built-in.o
 .text.save_omap_boot_params
                0x0000000000000000       0x78 arch/arm/mach-omap2/built-in.o
 .text.enable_gpmc_cs_config
                0x0000000000000000       0x6c arch/arm/mach-omap2/built-in.o
 .text.set_gpmc_cs0
                0x0000000000000000       0x18 arch/arm/mach-omap2/built-in.o
 .text.gpmc_init
                0x0000000000000000       0x50 arch/arm/mach-omap2/built-in.o
 .rodata        0x0000000000000000       0x84 arch/arm/mach-omap2/built-in.o
 .rodata.cmdpll
                0x0000000000000000        0x4 arch/arm/mach-omap2/built-in.o
 .rodata.cmper  0x0000000000000000        0x4 arch/arm/mach-omap2/built-in.o
 .rodata.cmrtc  0x0000000000000000        0x4 arch/arm/mach-omap2/built-in.o
 .rodata.cmwkup
                0x0000000000000000        0x4 arch/arm/mach-omap2/built-in.o
 .rodata.dpll_core
                0x0000000000000000       0x10 arch/arm/mach-omap2/built-in.o
 .rodata.dpll_core_opp100
                0x0000000000000000       0x10 arch/arm/mach-omap2/built-in.o
 .rodata.dpll_core_regs
                0x0000000000000000       0x24 arch/arm/mach-omap2/built-in.o
 .rodata.dpll_ddr_regs
                0x0000000000000000       0x24 arch/arm/mach-omap2/built-in.o
 .rodata.dpll_mpu
                0x0000000000000000       0x10 arch/arm/mach-omap2/built-in.o
 .rodata.dpll_mpu_regs
                0x0000000000000000       0x24 arch/arm/mach-omap2/built-in.o
 .rodata.dpll_per
                0x0000000000000000       0x10 arch/arm/mach-omap2/built-in.o
 .rodata.dpll_per_regs
                0x0000000000000000       0x24 arch/arm/mach-omap2/built-in.o
 .rodata.set_mpu_spreadspectrum.str1.1
                0x0000000000000000       0x31 arch/arm/mach-omap2/built-in.o
 .rodata.do_disable_clocks.str1.1
                0x0000000000000000       0x2b arch/arm/mach-omap2/built-in.o
 .rodata.do_enable_clocks.str1.1
                0x0000000000000000       0x2a arch/arm/mach-omap2/built-in.o
 .rodata.do_setup_dpll.str1.1
                0x0000000000000000       0x3a arch/arm/mach-omap2/built-in.o
 .rodata.config_sdram_emif4d5.str1.1
                0x0000000000000000       0x2a arch/arm/mach-omap2/built-in.o
 .rodata.ddr_cmd_reg
                0x0000000000000000        0x8 arch/arm/mach-omap2/built-in.o
 .rodata.ddr_data_reg
                0x0000000000000000        0x8 arch/arm/mach-omap2/built-in.o
 .rodata.emif_reg
                0x0000000000000000        0x8 arch/arm/mach-omap2/built-in.o
 .rodata.omap_die_id_display.str1.1
                0x0000000000000000       0x1f arch/arm/mach-omap2/built-in.o
 .rodata.omap_die_id_serial.str1.1
                0x0000000000000000       0x11 arch/arm/mach-omap2/built-in.o
 .rodata.omap_die_id_usbethaddr.str1.1
                0x0000000000000000        0xb arch/arm/mach-omap2/built-in.o
 .data          0x0000000000000000        0x0 arch/arm/mach-omap2/built-in.o
 .data.dpll_mpu_opp100
                0x0000000000000000       0x10 arch/arm/mach-omap2/built-in.o
 .data.gpmc_cfg
                0x0000000000000000        0x4 arch/arm/mach-omap2/built-in.o
 .data.gpmc_cs0_flash
                0x0000000000000000        0x1 arch/arm/mach-omap2/built-in.o
 .bss           0x0000000000000000        0x0 arch/arm/mach-omap2/built-in.o
 .text          0x0000000000000000        0x0 board/ti/common/built-in.o
 .text.ti_eeprom_string_cleanup
                0x0000000000000000       0x22 board/ti/common/built-in.o
 .text.gpi2c_init
                0x0000000000000000        0x2 board/ti/common/built-in.o
 .text.ti_i2c_eeprom_get
                0x0000000000000000       0x9c board/ti/common/built-in.o
 .text.ti_i2c_eeprom_am_get
                0x0000000000000000       0xcc board/ti/common/built-in.o
 .text.ti_i2c_eeprom_dra7_get
                0x0000000000000000       0xac board/ti/common/built-in.o
 .text.board_ti_rev_is
                0x0000000000000000       0x34 board/ti/common/built-in.o
 .text.board_ti_get_name
                0x0000000000000000        0x8 board/ti/common/built-in.o
 .text.board_ti_get_eth_mac_addr
                0x0000000000000000       0x34 board/ti/common/built-in.o
 .text.board_ti_get_emif1_size
                0x0000000000000000       0x20 board/ti/common/built-in.o
 .text.board_ti_get_emif2_size
                0x0000000000000000       0x20 board/ti/common/built-in.o
 .rodata.ti_i2c_eeprom_am_get.str1.1
                0x0000000000000000        0x5 board/ti/common/built-in.o
 .rodata.ti_i2c_eeprom_dra7_get.str1.1
                0x0000000000000000        0x6 board/ti/common/built-in.o
 .data          0x0000000000000000        0x0 board/ti/common/built-in.o
 .bss           0x0000000000000000        0x0 board/ti/common/built-in.o
 .text          0x0000000000000000        0x0 cmd/built-in.o
 .text.bootz_setup
                0x0000000000000000       0x14 cmd/built-in.o
 .text.name_to_gpio
                0x0000000000000000        0x8 cmd/built-in.o
 .rodata.bootz_setup.str1.1
                0x0000000000000000       0x34 cmd/built-in.o
 .data          0x0000000000000000        0x0 cmd/built-in.o
 .bss           0x0000000000000000        0x0 cmd/built-in.o
 .text          0x0000000000000000        0x0 common/built-in.o
 .text.hash_progressive_lookup_algo
                0x0000000000000000       0x3c common/built-in.o
 .text.hash_parse_string
                0x0000000000000000       0x3c common/built-in.o
 .text.hash_block
                0x0000000000000000       0x3e common/built-in.o
 .text.unset_local_var
                0x0000000000000000       0x5c common/built-in.o
 .text.arch_cpu_init_dm
                0x0000000000000000        0x4 common/built-in.o
 .text.red_led_off
                0x0000000000000000        0x2 common/built-in.o
 .text.green_led_on
                0x0000000000000000        0x2 common/built-in.o
 .text.green_led_off
                0x0000000000000000        0x2 common/built-in.o
 .text.yellow_led_on
                0x0000000000000000        0x2 common/built-in.o
 .text.yellow_led_off
                0x0000000000000000        0x2 common/built-in.o
 .text.blue_led_on
                0x0000000000000000        0x2 common/built-in.o
 .text.blue_led_off
                0x0000000000000000        0x2 common/built-in.o
 .text.dram_init_banksize
                0x0000000000000000       0x18 common/built-in.o
 .text.arch_reserve_stacks
                0x0000000000000000        0x4 common/built-in.o
 .text.board_flash_wp_on
                0x0000000000000000        0x4 common/built-in.o
 .text.fixup_cpu
                0x0000000000000000        0x4 common/built-in.o
 .text.env_flags_parse_varaccess_from_binflags
                0x0000000000000000       0x30 common/built-in.o
 .text.of_bus_default_map
                0x0000000000000000       0x80 common/built-in.o
 .text.fdt_read_prop
                0x0000000000000000       0x3c common/built-in.o
 .text.of_bus_default_translate
                0x0000000000000000       0x68 common/built-in.o
 .text.of_bus_default_count_cells
                0x0000000000000000       0x34 common/built-in.o
 .text.fdt_getprop_u32_default_node
                0x0000000000000000       0x24 common/built-in.o
 .text.fdt_getprop_u32_default
                0x0000000000000000       0x24 common/built-in.o
 .text.do_fixup_by_path_u32
                0x0000000000000000       0x1a common/built-in.o
 .text.do_fixup_by_prop
                0x0000000000000000       0x5e common/built-in.o
 .text.do_fixup_by_prop_u32
                0x0000000000000000       0x22 common/built-in.o
 .text.do_fixup_by_compat
                0x0000000000000000       0x50 common/built-in.o
 .text.do_fixup_by_compat_u32
                0x0000000000000000       0x1a common/built-in.o
 .text.fdt_increase_size
                0x0000000000000000        0xc common/built-in.o
 .text.fdt_del_node_and_alias
                0x0000000000000000       0x30 common/built-in.o
 .text.fdt_translate_address
                0x0000000000000000      0x16c common/built-in.o
 .text.fdt_node_offset_by_compat_reg
                0x0000000000000000       0x5c common/built-in.o
 .text.fdt_alloc_phandle
                0x0000000000000000       0x36 common/built-in.o
 .text.fdt_set_phandle
                0x0000000000000000       0x38 common/built-in.o
 .text.fdt_create_phandle
                0x0000000000000000       0x40 common/built-in.o
 .text.fdt_set_node_status
                0x0000000000000000       0x90 common/built-in.o
 .text.fdt_set_status_by_alias
                0x0000000000000000       0x1c common/built-in.o
 .text.fdt_verify_alias_address
                0x0000000000000000       0x88 common/built-in.o
 .text.fdt_get_base_address
                0x0000000000000000       0x34 common/built-in.o
 .text.fdt_read_range
                0x0000000000000000       0xd0 common/built-in.o
 .text.fdt_setup_simplefb_node
                0x0000000000000000      0x154 common/built-in.o
 .text.fdt_fixup_display
                0x0000000000000000       0x84 common/built-in.o
 .text.mdio_free
                0x0000000000000000        0x4 common/built-in.o
 .text.mdio_register_seq
                0x0000000000000000       0x24 common/built-in.o
 .text.mdio_unregister
                0x0000000000000000       0x24 common/built-in.o
 .text.usb_detect_change
                0x0000000000000000       0x44 common/built-in.o
 .text.usb_submit_int_msg
                0x0000000000000000        0x4 common/built-in.o
 .text.usb_set_protocol
                0x0000000000000000       0x2e common/built-in.o
 .text.usb_set_idle
                0x0000000000000000       0x32 common/built-in.o
 .text.usb_get_report
                0x0000000000000000       0x3a common/built-in.o
 .text.usb_get_class_descriptor
                0x0000000000000000       0x3a common/built-in.o
 .text.usb_stor_reset
                0x0000000000000000        0xc common/built-in.o
 .text.splash_screen_prepare
                0x0000000000000000        0x4 common/built-in.o
 .text.menu_default_choice
                0x0000000000000000       0x12 common/built-in.o
 .text.serial_printf
                0x0000000000000000       0x32 common/built-in.o
 .text.fputc    0x0000000000000000       0x14 common/built-in.o
 .text.fputs    0x0000000000000000       0x14 common/built-in.o
 .text.fprintf  0x0000000000000000       0x36 common/built-in.o
 .text.confirm_yesno
                0x0000000000000000       0x84 common/built-in.o
 .text.stdio_print_current_devices
                0x0000000000000000       0x78 common/built-in.o
 .text.valloc   0x0000000000000000        0xa common/built-in.o
 .text.pvalloc  0x0000000000000000       0x14 common/built-in.o
 .text.cfree    0x0000000000000000        0x4 common/built-in.o
 .text.malloc_usable_size
                0x0000000000000000       0x2a common/built-in.o
 .text.mallopt  0x0000000000000000       0x30 common/built-in.o
 .text.memalign_simple
                0x0000000000000000       0x32 common/built-in.o
 .text.genimg_get_short_name
                0x0000000000000000       0x14 common/built-in.o
 .text.genimg_get_cat_name
                0x0000000000000000       0x38 common/built-in.o
 .text.genimg_get_cat_short_name
                0x0000000000000000       0x38 common/built-in.o
 .text.genimg_get_cat_count
                0x0000000000000000       0x10 common/built-in.o
 .text.genimg_get_cat_desc
                0x0000000000000000       0x10 common/built-in.o
 .text.genimg_get_type_short_name
                0x0000000000000000        0xc common/built-in.o
 .text.genimg_get_comp_short_name
                0x0000000000000000        0xc common/built-in.o
 .text.genimg_get_os_short_name
                0x0000000000000000        0xc common/built-in.o
 .text.genimg_get_arch_short_name
                0x0000000000000000        0xc common/built-in.o
 .text.fit_get_subimage_count
                0x0000000000000000       0x2c common/built-in.o
 .text.fit_set_timestamp
                0x0000000000000000       0x2c common/built-in.o
 .text.fit_conf_find_compat
                0x0000000000000000       0xf0 common/built-in.o
 .text.stdio_init
                0x0000000000000000        0xe common/built-in.o
 .text.cli_simple_parse_line
                0x0000000000000000       0x50 common/built-in.o
 .text.cli_simple_run_command
                0x0000000000000000       0xd0 common/built-in.o
 .text.cli_simple_loop
                0x0000000000000000       0x58 common/built-in.o
 .text.cli_simple_run_command_list
                0x0000000000000000       0x3a common/built-in.o
 .text.run_command_repeatable
                0x0000000000000000       0x12 common/built-in.o
 .rodata.env_flags_parse_varaccess_from_binflags.str1.1
                0x0000000000000000       0x2c common/built-in.o
 .rodata.__FUNCTION__.9280
                0x0000000000000000       0x17 common/built-in.o
 .rodata.fdt_create_phandle.str1.1
                0x0000000000000000       0x1a common/built-in.o
 .rodata.fdt_fixup_display.str1.1
                0x0000000000000000       0x1c common/built-in.o
 .rodata.fdt_read_range.str1.1
                0x0000000000000000        0xf common/built-in.o
 .rodata.fdt_set_node_status.str1.1
                0x0000000000000000       0x3a common/built-in.o
 .rodata.fdt_set_phandle.str1.1
                0x0000000000000000       0x16 common/built-in.o
 .rodata.fdt_setup_simplefb_node.str1.1
                0x0000000000000000       0x2c common/built-in.o
 .rodata.fdt_translate_address.str1.1
                0x0000000000000000       0x22 common/built-in.o
 .rodata.fdt_verify_alias_address.str1.1
                0x0000000000000000       0xcd common/built-in.o
 .rodata.of_bus_default_count_cells.str1.1
                0x0000000000000000        0xc common/built-in.o
 .rodata.mdio_register_seq.str1.1
                0x0000000000000000        0x6 common/built-in.o
 .rodata.confirm_yesno.str1.1
                0x0000000000000000       0x10 common/built-in.o
 .rodata.stdio_print_current_devices.str1.1
                0x0000000000000000       0x74 common/built-in.o
 .rodata.genimg_get_short_name.str1.1
                0x0000000000000000        0x8 common/built-in.o
 .rodata.table_info
                0x0000000000000000       0x30 common/built-in.o
 .rodata.unknown_str.8986
                0x0000000000000000        0x9 common/built-in.o
 .rodata.cli_simple_loop.str1.1
                0x0000000000000000       0x11 common/built-in.o
 .rodata.cli_simple_parse_line.str1.1
                0x0000000000000000       0x1f common/built-in.o
 .rodata.cli_simple_run_command.str1.1
                0x0000000000000000       0x16 common/built-in.o
 .data          0x0000000000000000        0x0 common/built-in.o
 .data.of_busses
                0x0000000000000000       0x18 common/built-in.o
 .bss           0x0000000000000000        0x0 common/built-in.o
 .bss.msg.8987  0x0000000000000000       0x1e common/built-in.o
 .bss.save_addr
                0x0000000000000000        0x4 common/built-in.o
 .bss.save_size
                0x0000000000000000        0x4 common/built-in.o
 .bss.lastcommand.8212
                0x0000000000000000      0x401 common/built-in.o
 .text          0x0000000000000000        0x0 disk/built-in.o
 .text.part_get_info_by_name
                0x0000000000000000       0x60 disk/built-in.o
 .text.is_valid_dos_buf
                0x0000000000000000       0x10 disk/built-in.o
 .text.write_mbr_partition
                0x0000000000000000       0x44 disk/built-in.o
 .text.is_valid_gpt_buf
                0x0000000000000000       0x4e disk/built-in.o
 .text.write_mbr_and_gpt_partitions
                0x0000000000000000      0x2f8 disk/built-in.o
 .rodata.__func__.8232
                0x0000000000000000       0x14 disk/built-in.o
 .rodata.write_mbr_partition.str1.1
                0x0000000000000000       0x2d disk/built-in.o
 .rodata.__func__.8417
                0x0000000000000000       0x1d disk/built-in.o
 .rodata.write_mbr_and_gpt_partitions.str1.1
                0x0000000000000000       0x7c disk/built-in.o
 .data          0x0000000000000000        0x0 disk/built-in.o
 .bss           0x0000000000000000        0x0 disk/built-in.o
 .text          0x0000000000000000        0x0 drivers/built-in.o
 .text._device_find_global_by_of_offset
                0x0000000000000000       0x2e drivers/built-in.o
 .text.device_bind_with_driver_data
                0x0000000000000000       0x16 drivers/built-in.o
 .text.device_bind
                0x0000000000000000       0x16 drivers/built-in.o
 .text.dev_get_parent_platdata
                0x0000000000000000       0x20 drivers/built-in.o
 .text.dev_get_uclass_platdata
                0x0000000000000000       0x20 drivers/built-in.o
 .text.dev_get_parent_priv
                0x0000000000000000       0x20 drivers/built-in.o
 .text.device_get_child
                0x0000000000000000       0x30 drivers/built-in.o
 .text.device_find_child_by_seq
                0x0000000000000000       0x3a drivers/built-in.o
 .text.device_get_child_by_seq
                0x0000000000000000       0x32 drivers/built-in.o
 .text.device_find_child_by_of_offset
                0x0000000000000000       0x2e drivers/built-in.o
 .text.device_get_child_by_of_offset
                0x0000000000000000       0x20 drivers/built-in.o
 .text.device_get_global_by_of_offset
                0x0000000000000000       0x24 drivers/built-in.o
 .text.device_find_first_child
                0x0000000000000000       0x14 drivers/built-in.o
 .text.device_find_next_child
                0x0000000000000000       0x16 drivers/built-in.o
 .text.dev_get_parent
                0x0000000000000000        0x4 drivers/built-in.o
 .text.dev_get_driver_data
                0x0000000000000000        0x4 drivers/built-in.o
 .text.dev_get_driver_ops
                0x0000000000000000        0x8 drivers/built-in.o
 .text.device_get_uclass_id
                0x0000000000000000        0x8 drivers/built-in.o
 .text.dev_get_uclass_name
                0x0000000000000000        0xa drivers/built-in.o
 .text.dev_get_addr_index
                0x0000000000000000        0x6 drivers/built-in.o
 .text.dev_get_addr_size_index
                0x0000000000000000        0x6 drivers/built-in.o
 .text.dev_get_addr_name
                0x0000000000000000        0x6 drivers/built-in.o
 .text.dev_get_addr_ptr
                0x0000000000000000        0x6 drivers/built-in.o
 .text.dev_map_physmem
                0x0000000000000000        0x4 drivers/built-in.o
 .text.device_has_children
                0x0000000000000000        0xe drivers/built-in.o
 .text.device_has_active_children
                0x0000000000000000       0x24 drivers/built-in.o
 .text.device_is_last_sibling
                0x0000000000000000       0x14 drivers/built-in.o
 .text.device_set_name_alloced
                0x0000000000000000        0xa drivers/built-in.o
 .text.device_set_name
                0x0000000000000000       0x20 drivers/built-in.o
 .text.of_device_is_compatible
                0x0000000000000000       0x18 drivers/built-in.o
 .text.of_machine_is_compatible
                0x0000000000000000       0x18 drivers/built-in.o
 .text.device_bind_driver_to_node
                0x0000000000000000       0x2c drivers/built-in.o
 .text.device_bind_driver
                0x0000000000000000       0x12 drivers/built-in.o
 .text.dm_fixup_for_gd_move
                0x0000000000000000        0xe drivers/built-in.o
 .text.dm_get_translation_offset
                0x0000000000000000        0xe drivers/built-in.o
 .text.dm_set_translation_offset
                0x0000000000000000       0x10 drivers/built-in.o
 .text.dm_uninit
                0x0000000000000000       0x16 drivers/built-in.o
 .text.uclass_destroy
                0x0000000000000000       0x50 drivers/built-in.o
 .text.uclass_get_name
                0x0000000000000000       0x1a drivers/built-in.o
 .text.uclass_find_device_by_name
                0x0000000000000000       0x50 drivers/built-in.o
 .text.uclass_find_device_by_of_offset
                0x0000000000000000       0x42 drivers/built-in.o
 .text.uclass_get_device_by_driver
                0x0000000000000000       0x40 drivers/built-in.o
 .text.uclass_get_device_by_name
                0x0000000000000000       0x1c drivers/built-in.o
 .text.uclass_get_device_by_of_offset
                0x0000000000000000       0x1c drivers/built-in.o
 .text.uclass_first_device_err
                0x0000000000000000       0x16 drivers/built-in.o
 .text.dm_dbg   0x0000000000000000       0x1a drivers/built-in.o
 .text.list_count_items
                0x0000000000000000       0x14 drivers/built-in.o
 .text.device_unbind
                0x0000000000000000       0xb8 drivers/built-in.o
 .text.blk_list_part
                0x0000000000000000       0x52 drivers/built-in.o
 .text.blk_print_part_devnum
                0x0000000000000000       0x34 drivers/built-in.o
 .text.blk_list_devices
                0x0000000000000000       0x44 drivers/built-in.o
 .text.blk_print_device_num
                0x0000000000000000       0x38 drivers/built-in.o
 .text.blk_show_device
                0x0000000000000000       0x5c drivers/built-in.o
 .text.blk_read_devnum
                0x0000000000000000       0x48 drivers/built-in.o
 .text.blk_write_devnum
                0x0000000000000000       0x2e drivers/built-in.o
 .text.rtc_mktime
                0x0000000000000000       0x80 drivers/built-in.o
 .text.hw_watchdog_disable
                0x0000000000000000       0x30 drivers/built-in.o
 .text._input_send_keycodes
                0x0000000000000000      0x2c0 drivers/built-in.o
 .text.input_tstc
                0x0000000000000000       0x28 drivers/built-in.o
 .text.input_getc
                0x0000000000000000       0x34 drivers/built-in.o
 .text.input_send_keycodes
                0x0000000000000000        0x6 drivers/built-in.o
 .text.input_add_keycode
                0x0000000000000000       0x58 drivers/built-in.o
 .text.input_add_table
                0x0000000000000000       0x28 drivers/built-in.o
 .text.input_set_delays
                0x0000000000000000        0xa drivers/built-in.o
 .text.input_allow_repeats
                0x0000000000000000        0x6 drivers/built-in.o
 .text.input_leds_changed
                0x0000000000000000        0xe drivers/built-in.o
 .text.input_add_tables
                0x0000000000000000       0x4c drivers/built-in.o
 .text.input_init
                0x0000000000000000       0x14 drivers/built-in.o
 .text.input_stdio_register
                0x0000000000000000       0x34 drivers/built-in.o
 .rodata.__func__.9664
                0x0000000000000000       0x18 drivers/built-in.o
 .rodata.__func__.9668
                0x0000000000000000       0x18 drivers/built-in.o
 .rodata.__func__.9680
                0x0000000000000000       0x14 drivers/built-in.o
 .rodata.blk_list_devices.str1.1
                0x0000000000000000        0xc drivers/built-in.o
 .rodata.blk_print_device_num.str1.1
                0x0000000000000000       0x10 drivers/built-in.o
 .rodata.blk_show_device.str1.1
                0x0000000000000000       0x1d drivers/built-in.o
 .rodata.input_stdio_register.str1.1
                0x0000000000000000        0x6 drivers/built-in.o
 .rodata.kbd_plain_xlate
                0x0000000000000000       0x64 drivers/built-in.o
 .rodata.kbd_plain_xlate_german
                0x0000000000000000       0x84 drivers/built-in.o
 .rodata.kbd_to_ansi364
                0x0000000000000000       0x20 drivers/built-in.o
 .data          0x0000000000000000        0x0 drivers/built-in.o
 .data.kbd_ctrl_xlate
                0x0000000000000000       0x64 drivers/built-in.o
 .data.kbd_entry
                0x0000000000000000       0x8c drivers/built-in.o
 .data.kbd_right_alt_xlate_german
                0x0000000000000000       0x58 drivers/built-in.o
 .data.kbd_shift_xlate
                0x0000000000000000       0x64 drivers/built-in.o
 .data.kbd_shift_xlate_german
                0x0000000000000000       0x84 drivers/built-in.o
 .bss           0x0000000000000000        0x0 drivers/built-in.o
 .text          0x0000000000000000        0x0 drivers/gpio/built-in.o
 .text.gpio_xlate_offs_flags
                0x0000000000000000       0x24 drivers/gpio/built-in.o
 .text.dm_gpio_requestf
                0x0000000000000000       0x2a drivers/gpio/built-in.o
 .text.gpio_requestf
                0x0000000000000000       0x2a drivers/gpio/built-in.o
 .text.dm_gpio_get_open_drain
                0x0000000000000000       0x2c drivers/gpio/built-in.o
 .text.dm_gpio_set_open_drain
                0x0000000000000000       0x2c drivers/gpio/built-in.o
 .text.dm_gpio_set_dir_flags
                0x0000000000000000       0x58 drivers/gpio/built-in.o
 .text._gpio_request_by_name_nodev
                0x0000000000000000       0x94 drivers/gpio/built-in.o
 .text.dm_gpio_set_dir
                0x0000000000000000        0x6 drivers/gpio/built-in.o
 .text.gpio_claim_vector
                0x0000000000000000       0x52 drivers/gpio/built-in.o
 .text.gpio_get_values_as_int
                0x0000000000000000       0x2c drivers/gpio/built-in.o
 .text.dm_gpio_get_values_as_int
                0x0000000000000000       0x32 drivers/gpio/built-in.o
 .text.gpio_request_by_name_nodev
                0x0000000000000000       0x1c drivers/gpio/built-in.o
 .text.gpio_request_by_name
                0x0000000000000000       0x1c drivers/gpio/built-in.o
 .text.gpio_get_list_count
                0x0000000000000000       0x28 drivers/gpio/built-in.o
 .text.dm_gpio_free
                0x0000000000000000        0xa drivers/gpio/built-in.o
 .text.gpio_free_list
                0x0000000000000000       0x28 drivers/gpio/built-in.o
 .text.gpio_free_list_nodev
                0x0000000000000000        0xa drivers/gpio/built-in.o
 .text.gpio_request_list_by_name_nodev
                0x0000000000000000       0x54 drivers/gpio/built-in.o
 .text.gpio_request_list_by_name
                0x0000000000000000       0x1c drivers/gpio/built-in.o
 .text.gpio_get_number
                0x0000000000000000       0x14 drivers/gpio/built-in.o
 .text.gpio_is_valid
                0x0000000000000000        0xa drivers/gpio/built-in.o
 .rodata._gpio_request_by_name_nodev.str1.1
                0x0000000000000000       0x1a drivers/gpio/built-in.o
 .rodata.dm_gpio_get_open_drain.str1.1
                0x0000000000000000        0xf drivers/gpio/built-in.o
 .rodata.dm_gpio_set_dir_flags.str1.1
                0x0000000000000000        0x8 drivers/gpio/built-in.o
 .rodata.dm_gpio_set_open_drain.str1.1
                0x0000000000000000        0xf drivers/gpio/built-in.o
 .data          0x0000000000000000        0x0 drivers/gpio/built-in.o
 .bss           0x0000000000000000        0x0 drivers/gpio/built-in.o
 .text          0x0000000000000000        0x0 drivers/i2c/built-in.o
 .text.i2c_reloc_fixup
                0x0000000000000000        0x2 drivers/i2c/built-in.o
 .text.i2c_init_board
                0x0000000000000000        0x2 drivers/i2c/built-in.o
 .text.i2c_early_init_f
                0x0000000000000000        0x2 drivers/i2c/built-in.o
 .text.i2c_reg_read
                0x0000000000000000       0x18 drivers/i2c/built-in.o
 .text.i2c_reg_write
                0x0000000000000000       0x18 drivers/i2c/built-in.o
 .data          0x0000000000000000        0x0 drivers/i2c/built-in.o
 .bss           0x0000000000000000        0x0 drivers/i2c/built-in.o
 .text          0x0000000000000000        0x0 drivers/mmc/built-in.o
 .text.mmc_destroy
                0x0000000000000000        0x4 drivers/mmc/built-in.o
 .text.cpu_mmc_init
                0x0000000000000000        0x6 drivers/mmc/built-in.o
 .text.mmc_set_preinit
                0x0000000000000000        0x6 drivers/mmc/built-in.o
 .data          0x0000000000000000        0x0 drivers/mmc/built-in.o
 .bss           0x0000000000000000        0x0 drivers/mmc/built-in.o
 .text          0x0000000000000000        0x0 drivers/mtd/built-in.o
 .text.idr_remove
                0x0000000000000000        0xe drivers/mtd/built-in.o
 .text.idr_find
                0x0000000000000000        0xe drivers/mtd/built-in.o
 .text.idr_get_next
                0x0000000000000000       0x24 drivers/mtd/built-in.o
 .text.idr_alloc
                0x0000000000000000       0x26 drivers/mtd/built-in.o
 .text.__mtd_next_device
                0x0000000000000000       0x18 drivers/mtd/built-in.o
 .text.del_mtd_device
                0x0000000000000000       0x4c drivers/mtd/built-in.o
 .text.__get_mtd_device
                0x0000000000000000       0x20 drivers/mtd/built-in.o
 .text.get_mtd_device
                0x0000000000000000       0x58 drivers/mtd/built-in.o
 .text.get_mtd_device_nm
                0x0000000000000000       0x34 drivers/mtd/built-in.o
 .text.__put_mtd_device
                0x0000000000000000       0x38 drivers/mtd/built-in.o
 .text.put_mtd_device
                0x0000000000000000        0x4 drivers/mtd/built-in.o
 .text.mtd_erase
                0x0000000000000000       0x6c drivers/mtd/built-in.o
 .text.mtd_get_unmapped_area
                0x0000000000000000       0x5e drivers/mtd/built-in.o
 .text.mtd_read
                0x0000000000000000       0x82 drivers/mtd/built-in.o
 .text.mtd_write
                0x0000000000000000       0x62 drivers/mtd/built-in.o
 .text.mtd_panic_write
                0x0000000000000000       0x66 drivers/mtd/built-in.o
 .text.mtd_read_oob
                0x0000000000000000       0x36 drivers/mtd/built-in.o
 .text.mtd_get_fact_prot_info
                0x0000000000000000       0x1a drivers/mtd/built-in.o
 .text.mtd_read_fact_prot_reg
                0x0000000000000000       0x22 drivers/mtd/built-in.o
 .text.mtd_get_user_prot_info
                0x0000000000000000       0x1a drivers/mtd/built-in.o
 .text.mtd_read_user_prot_reg
                0x0000000000000000       0x22 drivers/mtd/built-in.o
 .text.mtd_write_user_prot_reg
                0x0000000000000000       0x38 drivers/mtd/built-in.o
 .text.mtd_lock_user_prot_reg
                0x0000000000000000       0x1e drivers/mtd/built-in.o
 .text.mtd_lock
                0x0000000000000000       0x5c drivers/mtd/built-in.o
 .text.mtd_unlock
                0x0000000000000000       0x5c drivers/mtd/built-in.o
 .text.add_mtd_device
                0x0000000000000000      0x128 drivers/mtd/built-in.o
 .text.mtd_is_locked
                0x0000000000000000       0x5c drivers/mtd/built-in.o
 .text.mtd_block_isreserved
                0x0000000000000000       0x2c drivers/mtd/built-in.o
 .text.mtd_block_isbad
                0x0000000000000000       0x2c drivers/mtd/built-in.o
 .text.mtd_block_markbad
                0x0000000000000000       0x42 drivers/mtd/built-in.o
 .rodata.__put_mtd_device.str1.1
                0x0000000000000000       0x2c drivers/mtd/built-in.o
 .rodata.add_mtd_device.str1.1
                0x0000000000000000       0x28 drivers/mtd/built-in.o
 .rodata.del_mtd_device.str1.1
                0x0000000000000000       0x30 drivers/mtd/built-in.o
 .data          0x0000000000000000        0x0 drivers/mtd/built-in.o
 .bss           0x0000000000000000        0x0 drivers/mtd/built-in.o
 .bss.mtd_idr   0x0000000000000000      0x200 drivers/mtd/built-in.o
 .bss.mtd_table
                0x0000000000000000       0x80 drivers/mtd/built-in.o
 .text          0x0000000000000000        0x0 drivers/mtd/spi/built-in.o
 .data          0x0000000000000000        0x0 drivers/mtd/spi/built-in.o
 .bss           0x0000000000000000        0x0 drivers/mtd/spi/built-in.o
 .text          0x0000000000000000        0x0 drivers/net/built-in.o
 .text.cpsw_am33xx_cm_get_macid.isra.0
                0x0000000000000000       0x8c drivers/net/built-in.o
 .text.davinci_emac_3517_get_macid.isra.1
                0x0000000000000000       0x8c drivers/net/built-in.o
 .text.ti_cm_get_macid
                0x0000000000000000       0xa0 drivers/net/built-in.o
 .rodata.__func__.9451
                0x0000000000000000       0x1c drivers/net/built-in.o
 .rodata.__func__.9469
                0x0000000000000000       0x19 drivers/net/built-in.o
 .rodata.cpsw_am33xx_cm_get_macid.isra.0.str1.1
                0x0000000000000000       0x9f drivers/net/built-in.o
 .rodata.ti_cm_get_macid.str1.1
                0x0000000000000000       0x7d drivers/net/built-in.o
 .data          0x0000000000000000        0x0 drivers/net/built-in.o
 .bss           0x0000000000000000        0x0 drivers/net/built-in.o
 .text          0x0000000000000000        0x0 drivers/net/phy/built-in.o
 .text.phy_set_supported
                0x0000000000000000       0x38 drivers/net/phy/built-in.o
 .text.miiphy_reset
                0x0000000000000000       0x1a drivers/net/phy/built-in.o
 .text.phy_shutdown
                0x0000000000000000        0xe drivers/net/phy/built-in.o
 .text.phy_get_interface_by_name
                0x0000000000000000       0x28 drivers/net/phy/built-in.o
 .rodata.phy_interface_strings
                0x0000000000000000       0x38 drivers/net/phy/built-in.o
 .data          0x0000000000000000        0x0 drivers/net/phy/built-in.o
 .bss           0x0000000000000000        0x0 drivers/net/phy/built-in.o
 .text          0x0000000000000000        0x0 drivers/power/pmic/built-in.o
 .text.tps65217_reg_read
                0x0000000000000000       0x16 drivers/power/pmic/built-in.o
 .text.tps65217_reg_write
                0x0000000000000000       0x9c drivers/power/pmic/built-in.o
 .text.tps65217_voltage_update
                0x0000000000000000       0x32 drivers/power/pmic/built-in.o
 .text.tps65910_set_i2c_control
                0x0000000000000000       0x36 drivers/power/pmic/built-in.o
 .text.tps65910_voltage_update
                0x0000000000000000       0x94 drivers/power/pmic/built-in.o
 .data          0x0000000000000000        0x0 drivers/power/pmic/built-in.o
 .bss           0x0000000000000000        0x0 drivers/power/pmic/built-in.o
 .comment       0x0000000000000000       0x44 drivers/power/pmic/built-in.o
 .note.GNU-stack
                0x0000000000000000        0x0 drivers/power/pmic/built-in.o
 .ARM.attributes
                0x0000000000000000       0x2d drivers/power/pmic/built-in.o
 .debug_aranges
                0x0000000000000000       0x58 drivers/power/pmic/built-in.o
 .debug_info    0x0000000000000000     0x1f1a drivers/power/pmic/built-in.o
 .debug_abbrev  0x0000000000000000      0x4e2 drivers/power/pmic/built-in.o
 .debug_line    0x0000000000000000      0x502 drivers/power/pmic/built-in.o
 .debug_frame   0x0000000000000000       0xb0 drivers/power/pmic/built-in.o
 .debug_str     0x0000000000000000     0x182c drivers/power/pmic/built-in.o
 .debug_loc     0x0000000000000000      0x273 drivers/power/pmic/built-in.o
 .debug_ranges  0x0000000000000000       0x38 drivers/power/pmic/built-in.o
 .text          0x0000000000000000        0x0 drivers/serial/built-in.o
 .text.ns16550_calc_divisor
                0x0000000000000000       0x10 drivers/serial/built-in.o
 .text.NS16550_reinit
                0x0000000000000000       0x38 drivers/serial/built-in.o
 .text.NS16550_putc
                0x0000000000000000       0x2a drivers/serial/built-in.o
 .text.NS16550_getc
                0x0000000000000000       0x22 drivers/serial/built-in.o
 .text.NS16550_tstc
                0x0000000000000000       0x10 drivers/serial/built-in.o
 .data          0x0000000000000000        0x0 drivers/serial/built-in.o
 .bss           0x0000000000000000        0x0 drivers/serial/built-in.o
 .text          0x0000000000000000        0x0 drivers/spi/built-in.o
 .text.spi_set_wordlen
                0x0000000000000000       0x20 drivers/spi/built-in.o
 .rodata.spi_set_wordlen.str1.1
                0x0000000000000000       0x19 drivers/spi/built-in.o
 .data          0x0000000000000000        0x0 drivers/spi/built-in.o
 .bss           0x0000000000000000        0x0 drivers/spi/built-in.o
 .text          0x0000000000000000        0x0 drivers/usb/gadget/built-in.o
 .text.usb_function_deactivate
                0x0000000000000000       0x2a drivers/usb/gadget/built-in.o
 .text.usb_function_activate
                0x0000000000000000       0x2a drivers/usb/gadget/built-in.o
 .text.usb_string_ids_tab
                0x0000000000000000       0x28 drivers/usb/gadget/built-in.o
 .text.usb_string_ids_n
                0x0000000000000000       0x1c drivers/usb/gadget/built-in.o
 .text.board_usb_init
                0x0000000000000000        0x4 drivers/usb/gadget/built-in.o
 .text.board_usb_cleanup
                0x0000000000000000        0x4 drivers/usb/gadget/built-in.o
 .text.fastboot_fail
                0x0000000000000000       0x20 drivers/usb/gadget/built-in.o
 .text.fastboot_okay
                0x0000000000000000       0x20 drivers/usb/gadget/built-in.o
 .text.fb_set_reboot_flag
                0x0000000000000000        0x6 drivers/usb/gadget/built-in.o
 .rodata        0x0000000000000000        0xc drivers/usb/gadget/built-in.o
 .data          0x0000000000000000        0x0 drivers/usb/gadget/built-in.o
 .bss           0x0000000000000000        0x0 drivers/usb/gadget/built-in.o
 .text          0x0000000000000000        0x0 drivers/usb/musb-new/built-in.o
 .text.musb_gadget_cleanup
                0x0000000000000000        0x2 drivers/usb/musb-new/built-in.o
 .text.musb_g_resume
                0x0000000000000000        0x2 drivers/usb/musb-new/built-in.o
 .text.musb_g_suspend
                0x0000000000000000        0x2 drivers/usb/musb-new/built-in.o
 .text.musb_g_wakeup
                0x0000000000000000        0x2 drivers/usb/musb-new/built-in.o
 .text.musb_g_disconnect
                0x0000000000000000       0x38 drivers/usb/musb-new/built-in.o
 .text.musb_g_reset
                0x0000000000000000       0x66 drivers/usb/musb-new/built-in.o
 .text.create_int_queue
                0x0000000000000000       0xa8 drivers/usb/musb-new/built-in.o
 .text.poll_int_queue
                0x0000000000000000       0x28 drivers/usb/musb-new/built-in.o
 .text.destroy_int_queue
                0x0000000000000000       0x48 drivers/usb/musb-new/built-in.o
 .rodata.create_int_queue.str1.1
                0x0000000000000000       0x5e drivers/usb/musb-new/built-in.o
 .data          0x0000000000000000        0x0 drivers/usb/musb-new/built-in.o
 .bss           0x0000000000000000        0x0 drivers/usb/musb-new/built-in.o
 .text          0x0000000000000000        0x0 fs/built-in.o
 .text.fs_uuid  0x0000000000000000       0x1c fs/built-in.o
 .text.do_fs_uuid
                0x0000000000000000       0x58 fs/built-in.o
 .text.print_revoke_blks
                0x0000000000000000       0x34 fs/built-in.o
 .text.fat_register_device
                0x0000000000000000       0x54 fs/built-in.o
 .text.file_fat_read
                0x0000000000000000       0x22 fs/built-in.o
 .text.file_getfsname
                0x0000000000000000       0x10 fs/built-in.o
 .text.file_cd  0x0000000000000000      0x114 fs/built-in.o
 .text.file_detectfs
                0x0000000000000000       0x2c fs/built-in.o
 .text.file_ls  0x0000000000000000       0x5c fs/built-in.o
 .text.file_read
                0x0000000000000000       0x64 fs/built-in.o
 .rodata.print_revoke_blks.str1.1
                0x0000000000000000       0x25 fs/built-in.o
 .rodata.fat_register_device.str1.1
                0x0000000000000000       0x2b fs/built-in.o
 .rodata.file_detectfs.str1.1
                0x0000000000000000        0x2 fs/built-in.o
 .rodata.file_ls.str1.1
                0x0000000000000000       0x2e fs/built-in.o
 .rodata.file_read.str1.1
                0x0000000000000000       0x27 fs/built-in.o
 .rodata.filesystems
                0x0000000000000000       0x18 fs/built-in.o
 .data          0x0000000000000000        0x0 fs/built-in.o
 .data.current_filesystem
                0x0000000000000000        0x4 fs/built-in.o
 .data.file_cwd
                0x0000000000000000      0x200 fs/built-in.o
 .bss           0x0000000000000000        0x0 fs/built-in.o
 .bss.ext4fs_symlinknest
                0x0000000000000000        0x4 fs/built-in.o
 .text          0x0000000000000000        0x0 lib/built-in.o
 .text.invalidate_icache_all
                0x0000000000000000        0x2 lib/built-in.o
 .text.efi_add_runtime_mmio
                0x0000000000000000       0x58 lib/built-in.o
 .text.inflateInit_
                0x0000000000000000        0xa lib/built-in.o
 .text.fdt_get_phandle
                0x0000000000000000       0x40 lib/built-in.o
 .text.fdt_get_max_phandle
                0x0000000000000000       0x42 lib/built-in.o
 .text.fdt_get_alias
                0x0000000000000000       0x1a lib/built-in.o
 .text.fdt_get_path
                0x0000000000000000       0xba lib/built-in.o
 .text.fdt_parent_offset
                0x0000000000000000       0x20 lib/built-in.o
 .text.fdt_node_offset_by_prop_value
                0x0000000000000000       0x56 lib/built-in.o
 .text.fdt_node_offset_by_phandle
                0x0000000000000000       0x42 lib/built-in.o
 .text.fdt_stringlist_contains
                0x0000000000000000       0x46 lib/built-in.o
 .text.fdt_stringlist_count
                0x0000000000000000       0x38 lib/built-in.o
 .text.fdt_stringlist_search
                0x0000000000000000       0x66 lib/built-in.o
 .text.fdt_node_check_compatible
                0x0000000000000000       0x28 lib/built-in.o
 .text.fdt_node_offset_by_compatible
                0x0000000000000000       0x40 lib/built-in.o
 .text.fdt_set_name
                0x0000000000000000       0x5a lib/built-in.o
 .text.fdt_appendprop
                0x0000000000000000       0x84 lib/built-in.o
 .text.fdt_pack
                0x0000000000000000       0x34 lib/built-in.o
 .text.fdt_remove_unused_strings
                0x0000000000000000       0x6a lib/built-in.o
 .text._fdt_sw_check_header
                0x0000000000000000       0x14 lib/built-in.o
 .text._fdt_grab_space
                0x0000000000000000       0x2e lib/built-in.o
 .text.fdt_create
                0x0000000000000000       0x40 lib/built-in.o
 .text.fdt_resize
                0x0000000000000000       0x78 lib/built-in.o
 .text.fdt_add_reservemap_entry
                0x0000000000000000       0x56 lib/built-in.o
 .text.fdt_finish_reservemap
                0x0000000000000000       0x14 lib/built-in.o
 .text.fdt_begin_node
                0x0000000000000000       0x42 lib/built-in.o
 .text.fdt_end_node
                0x0000000000000000       0x26 lib/built-in.o
 .text.fdt_property_placeholder
                0x0000000000000000       0x9e lib/built-in.o
 .text.fdt_property
                0x0000000000000000       0x22 lib/built-in.o
 .text.fdt_finish
                0x0000000000000000       0x94 lib/built-in.o
 .text.fdt_setprop_inplace_namelen_partial
                0x0000000000000000       0x32 lib/built-in.o
 .text.fdt_setprop_inplace
                0x0000000000000000       0x4a lib/built-in.o
 .text.fdt_nop_property
                0x0000000000000000       0x2a lib/built-in.o
 .text.fdt_nop_node
                0x0000000000000000       0x30 lib/built-in.o
 .text.fdt_find_regions
                0x0000000000000000      0x226 lib/built-in.o
 .text.fdt_create_empty_tree
                0x0000000000000000       0x44 lib/built-in.o
 .text.fdt_add_region
                0x0000000000000000       0x5a lib/built-in.o
 .text.fdt_add_alias_regions
                0x0000000000000000      0x110 lib/built-in.o
 .text.fdt_next_region
                0x0000000000000000      0x33e lib/built-in.o
 .text.fdt_first_region
                0x0000000000000000       0x3a lib/built-in.o
 .text.crc7     0x0000000000000000       0x1c lib/built-in.o
 .text.crc8     0x0000000000000000       0x30 lib/built-in.o
 .text.fdtdec_get_int
                0x0000000000000000       0x1c lib/built-in.o
 .text.fdtdec_get_uint
                0x0000000000000000       0x1c lib/built-in.o
 .text.lmb_dump_all
                0x0000000000000000        0x2 lib/built-in.o
 .text.lmb_is_reserved
                0x0000000000000000       0x28 lib/built-in.o
 .text.arch_lmb_reserve
                0x0000000000000000        0x2 lib/built-in.o
 .text.ldiv     0x0000000000000000       0x24 lib/built-in.o
 .text.byteReverse
                0x0000000000000000        0x2 lib/built-in.o
 .text.md5      0x0000000000000000       0x44 lib/built-in.o
 .text.rc4_encode
                0x0000000000000000       0x92 lib/built-in.o
 .text.sha1_csum
                0x0000000000000000       0x24 lib/built-in.o
 .text.sha1_hmac
                0x0000000000000000       0xbc lib/built-in.o
 .text.sha1_self_test
                0x0000000000000000        0x4 lib/built-in.o
 .text.print_freq
                0x0000000000000000      0x12c lib/built-in.o
 .text.copy_from_user
                0x0000000000000000        0xa lib/built-in.o
 .text.get_mem  0x0000000000000000       0x10 lib/built-in.o
 .text.kmem_cache_alloc
                0x0000000000000000        0x8 lib/built-in.o
 .text.membuff_purge
                0x0000000000000000        0x8 lib/built-in.o
 .text.membuff_putraw
                0x0000000000000000       0x6a lib/built-in.o
 .text.membuff_putbyte
                0x0000000000000000       0x1c lib/built-in.o
 .text.membuff_getraw
                0x0000000000000000       0x50 lib/built-in.o
 .text.membuff_getbyte
                0x0000000000000000       0x22 lib/built-in.o
 .text.membuff_peekbyte
                0x0000000000000000       0x20 lib/built-in.o
 .text.membuff_get
                0x0000000000000000       0x46 lib/built-in.o
 .text.membuff_put
                0x0000000000000000       0x3e lib/built-in.o
 .text.membuff_isempty
                0x0000000000000000        0xc lib/built-in.o
 .text.membuff_avail
                0x0000000000000000       0x34 lib/built-in.o
 .text.membuff_size
                0x0000000000000000        0x8 lib/built-in.o
 .text.membuff_makecontig
                0x0000000000000000       0x44 lib/built-in.o
 .text.membuff_free
                0x0000000000000000       0x1a lib/built-in.o
 .text.membuff_readline
                0x0000000000000000       0x68 lib/built-in.o
 .text.membuff_extend_by
                0x0000000000000000       0x76 lib/built-in.o
 .text.membuff_init
                0x0000000000000000        0xc lib/built-in.o
 .text.membuff_new
                0x0000000000000000       0x22 lib/built-in.o
 .text.membuff_uninit
                0x0000000000000000        0xc lib/built-in.o
 .text.membuff_dispose
                0x0000000000000000       0x14 lib/built-in.o
 .text.strswab  0x0000000000000000       0x26 lib/built-in.o
 .text.memscan  0x0000000000000000       0x16 lib/built-in.o
 .text.memchr_inv
                0x0000000000000000       0x94 lib/built-in.o
 .text.table_compute_checksum
                0x0000000000000000       0x18 lib/built-in.o
 .text.get_ticks
                0x0000000000000000       0x26 lib/built-in.o
 .text.timer_init
                0x0000000000000000        0x4 lib/built-in.o
 .text.get_timer
                0x0000000000000000       0x10 lib/built-in.o
 .text.__udelay
                0x0000000000000000       0x84 lib/built-in.o
 .text.vsnprintf
                0x0000000000000000        0x4 lib/built-in.o
 .text.scnprintf
                0x0000000000000000       0x1a lib/built-in.o
 .text.__assert_fail
                0x0000000000000000       0x10 lib/built-in.o
 .text.print_grouped_ull
                0x0000000000000000       0x5c lib/built-in.o
 .text.str2long
                0x0000000000000000       0x22 lib/built-in.o
 .text.strmhz   0x0000000000000000       0x4c lib/built-in.o
 .rodata.z_errmsg
                0x0000000000000000       0x28 lib/built-in.o
 .rodata.fdt_get_phandle.str1.1
                0x0000000000000000       0x16 lib/built-in.o
 .rodata.fdt_node_check_compatible.str1.1
                0x0000000000000000        0xb lib/built-in.o
 .rodata.fdt_create_empty_tree.str1.1
                0x0000000000000000        0x1 lib/built-in.o
 .rodata.fdt_add_alias_regions.str1.1
                0x0000000000000000        0x8 lib/built-in.o
 .rodata.crc7_syndrome_table
                0x0000000000000000      0x100 lib/built-in.o
 .rodata.sha1_der_prefix
                0x0000000000000000        0xf lib/built-in.o
 .rodata.sha256_der_prefix
                0x0000000000000000       0x13 lib/built-in.o
 .rodata.names.8255
                0x0000000000000000        0x3 lib/built-in.o
 .rodata.__assert_fail.str1.1
                0x0000000000000000       0x22 lib/built-in.o
 .rodata.print_grouped_ull.str1.1
                0x0000000000000000        0xb lib/built-in.o
 .rodata.strmhz.str1.1
                0x0000000000000000        0xb lib/built-in.o
 .data          0x0000000000000000        0x0 lib/built-in.o
 .data.cur      0x0000000000000000        0x4 lib/built-in.o
 .data.current  0x0000000000000000        0x4 lib/built-in.o
 .bss           0x0000000000000000        0x0 lib/built-in.o
 .text          0x0000000000000000        0x0 net/built-in.o
 .text.add_ip_checksums
                0x0000000000000000       0x2e net/built-in.o
 .text.eth_is_active
                0x0000000000000000        0xc net/built-in.o
 .text.net_get_udp_handler
                0x0000000000000000        0xc net/built-in.o
 .text.net_set_arp_handler
                0x0000000000000000       0x18 net/built-in.o
 .text.random_port
                0x0000000000000000       0x12 net/built-in.o
 .text.vlan_to_string
                0x0000000000000000       0x34 net/built-in.o
 .text.getenv_vlan
                0x0000000000000000        0xe net/built-in.o
 .rodata.vlan_to_string.str1.1
                0x0000000000000000        0x8 net/built-in.o
 .data          0x0000000000000000        0x0 net/built-in.o
 .bss           0x0000000000000000        0x0 net/built-in.o
 .bss.net_busy_flag
                0x0000000000000000        0x4 net/built-in.o
 .text          0x0000000000000000        0x0 test/dm/built-in.o
 .data          0x0000000000000000        0x0 test/dm/built-in.o
 .bss           0x0000000000000000        0x0 test/dm/built-in.o
 .text          0x0000000000000000        0x0 arch/arm/lib/eabi_compat.o
 .data          0x0000000000000000        0x0 arch/arm/lib/eabi_compat.o
 .bss           0x0000000000000000        0x0 arch/arm/lib/eabi_compat.o
 .text.raise    0x0000000000000000       0x14 arch/arm/lib/eabi_compat.o
 .text.__aeabi_unwind_cpp_pr0
                0x0000000000000000        0x2 arch/arm/lib/eabi_compat.o
 .text.__aeabi_unwind_cpp_pr1
                0x0000000000000000        0x2 arch/arm/lib/eabi_compat.o
 .text.__aeabi_memcpy
                0x0000000000000000        0x4 arch/arm/lib/eabi_compat.o
 .text.__aeabi_memset
                0x0000000000000000        0xa arch/arm/lib/eabi_compat.o
 .rodata.raise.str1.1
                0x0000000000000000       0x1b arch/arm/lib/eabi_compat.o
 .debug_info    0x0000000000000000      0xe63 arch/arm/lib/eabi_compat.o
 .debug_abbrev  0x0000000000000000      0x2ac arch/arm/lib/eabi_compat.o
 .debug_loc     0x0000000000000000      0x12a arch/arm/lib/eabi_compat.o
 .debug_aranges
                0x0000000000000000       0x38 arch/arm/lib/eabi_compat.o
 .debug_ranges  0x0000000000000000       0x28 arch/arm/lib/eabi_compat.o
 .debug_line    0x0000000000000000      0x1d0 arch/arm/lib/eabi_compat.o
 .debug_str     0x0000000000000000      0xad4 arch/arm/lib/eabi_compat.o
 .comment       0x0000000000000000       0x22 arch/arm/lib/eabi_compat.o
 .note.GNU-stack
                0x0000000000000000        0x0 arch/arm/lib/eabi_compat.o
 .debug_frame   0x0000000000000000       0x68 arch/arm/lib/eabi_compat.o
 .ARM.attributes
                0x0000000000000000       0x2d arch/arm/lib/eabi_compat.o
 .text          0x0000000000000000        0x0 arch/arm/lib/lib.a(lib1funcs.o)
 .data          0x0000000000000000        0x0 arch/arm/lib/lib.a(lib1funcs.o)
 .bss           0x0000000000000000        0x0 arch/arm/lib/lib.a(lib1funcs.o)
 .text.__umodsi3
                0x0000000000000000       0xa0 arch/arm/lib/lib.a(lib1funcs.o)
 .text.__modsi3
                0x0000000000000000       0xb8 arch/arm/lib/lib.a(lib1funcs.o)
 .text          0x0000000000000000        0x0 arch/arm/lib/lib.a(div0.o)
 .data          0x0000000000000000        0x0 arch/arm/lib/lib.a(div0.o)
 .bss           0x0000000000000000        0x0 arch/arm/lib/lib.a(div0.o)

Memory Configuration

Name             Origin             Length             Attributes
*default*        0x0000000000000000 0xffffffffffffffff

Linker script and memory map

Address of section .text set to 0x80800000
                0x0000000000000000                . = 0x0
                0x0000000000000000                . = ALIGN (0x4)

.text           0x0000000080800000    0x3768c
 *(.__image_copy_start)
 .__image_copy_start
                0x0000000080800000        0x0 arch/arm/lib/built-in.o
                0x0000000080800000                __image_copy_start
 *(.vectors)
 .vectors       0x0000000080800000      0x2e8 arch/arm/lib/built-in.o
                0x0000000080800000                _start
                0x0000000080800020                _undefined_instruction
                0x0000000080800024                _software_interrupt
                0x0000000080800028                _prefetch_abort
                0x000000008080002c                _data_abort
                0x0000000080800030                _not_used
                0x0000000080800034                _irq
                0x0000000080800038                _fiq
                0x0000000080800040                IRQ_STACK_START_IN
 arch/arm/cpu/armv7/start.o(.text*)
 .text          0x00000000808002e8       0xa4 arch/arm/cpu/armv7/start.o
                0x00000000808002e8                reset
                0x00000000808002ec                save_boot_params_ret
                0x0000000080800320                c_runtime_cpu_setup
                0x0000000080800334                cpu_init_cp15
 board/ti/am335x/built-in.o(.text*)
 .text.cpsw_control
                0x000000008080038c        0x2 board/ti/am335x/built-in.o
 *fill*         0x000000008080038e        0x2 
 .text.request_and_set_gpio
                0x0000000080800390       0x58 board/ti/am335x/built-in.o
 .text.board_init
                0x00000000808003e8      0x184 board/ti/am335x/built-in.o
                0x00000000808003e8                board_init
 .text.board_late_init
                0x000000008080056c       0xf8 board/ti/am335x/built-in.o
                0x000000008080056c                board_late_init
 .text.board_eth_init
                0x0000000080800664      0x150 board/ti/am335x/built-in.o
                0x0000000080800664                board_eth_init
 *(.text*)
 .text          0x00000000808007b4      0x158 arch/arm/cpu/armv7/built-in.o
                0x00000000808007b4                __v7_flush_dcache_all
                0x0000000080800850                v7_flush_dcache_all
                0x0000000080800860                __v7_invalidate_dcache_all
                0x00000000808008fc                v7_invalidate_dcache_all
 .text.invalidate_icache_all
                0x000000008080090c       0x14 arch/arm/cpu/armv7/built-in.o
                0x000000008080090c                invalidate_icache_all
 .text.v7_outer_cache_enable
                0x0000000080800920        0x2 arch/arm/cpu/armv7/built-in.o
                0x0000000080800920                v7_outer_cache_enable
 .text.v7_outer_cache_disable
                0x0000000080800922        0x2 arch/arm/cpu/armv7/built-in.o
                0x0000000080800922                v7_outer_cache_disable
 .text.v7_outer_cache_flush_all
                0x0000000080800924        0x2 arch/arm/cpu/armv7/built-in.o
                0x0000000080800924                v7_outer_cache_flush_all
 .text.flush_dcache_all
                0x0000000080800926        0xe arch/arm/cpu/armv7/built-in.o
                0x0000000080800926                flush_dcache_all
 .text.v7_outer_cache_inval_all
                0x0000000080800934        0x2 arch/arm/cpu/armv7/built-in.o
                0x0000000080800934                v7_outer_cache_inval_all
 .text.invalidate_dcache_all
                0x0000000080800936        0xe arch/arm/cpu/armv7/built-in.o
                0x0000000080800936                invalidate_dcache_all
 .text.arm_init_before_mmu
                0x0000000080800944       0x22 arch/arm/cpu/armv7/built-in.o
                0x0000000080800944                arm_init_before_mmu
 .text.v7_outer_cache_flush_range
                0x0000000080800966        0x2 arch/arm/cpu/armv7/built-in.o
                0x0000000080800966                v7_outer_cache_flush_range
 .text.flush_dcache_range
                0x0000000080800968       0x38 arch/arm/cpu/armv7/built-in.o
                0x0000000080800968                flush_dcache_range
 .text.v7_outer_cache_inval_range
                0x00000000808009a0        0x2 arch/arm/cpu/armv7/built-in.o
                0x00000000808009a0                v7_outer_cache_inval_range
 .text.invalidate_dcache_range
                0x00000000808009a2       0x42 arch/arm/cpu/armv7/built-in.o
                0x00000000808009a2                invalidate_dcache_range
 .text.cpu_cache_initialization
                0x00000000808009e4        0x2 arch/arm/cpu/armv7/built-in.o
                0x00000000808009e4                cpu_cache_initialization
 .text.cleanup_before_linux_select
                0x00000000808009e6       0x3e arch/arm/cpu/armv7/built-in.o
                0x00000000808009e6                cleanup_before_linux_select
 .text.cleanup_before_linux
                0x0000000080800a24        0x6 arch/arm/cpu/armv7/built-in.o
                0x0000000080800a24                cleanup_before_linux
 *fill*         0x0000000080800a2a       0x16 
 .text          0x0000000080800a40      0x420 arch/arm/lib/built-in.o
                0x0000000080800a40                _main
                0x0000000080800ae0                memset
                0x0000000080800b80                memcpy
 .text.relocate_vectors
                0x0000000080800e60       0x70 arch/arm/lib/built-in.o
                0x0000000080800e60                relocate_vectors
                0x0000000080800e6c                relocate_code
 .text.arch_fixup_fdt
                0x0000000080800ed0       0x24 arch/arm/lib/built-in.o
                0x0000000080800ed0                arch_fixup_fdt
 .text.arch_lmb_reserve
                0x0000000080800ef4       0x1a arch/arm/lib/built-in.o
                0x0000000080800ef4                arch_lmb_reserve
 .text.board_quiesce_devices
                0x0000000080800f0e        0x2 arch/arm/lib/built-in.o
                0x0000000080800f0e                board_quiesce_devices
 .text.boot_jump_linux
                0x0000000080800f10       0x88 arch/arm/lib/built-in.o
 .text.setup_board_tags
                0x0000000080800f98        0x2 arch/arm/lib/built-in.o
                0x0000000080800f98                setup_board_tags
 *fill*         0x0000000080800f9a        0x2 
 .text.boot_prep_linux
                0x0000000080800f9c      0x104 arch/arm/lib/built-in.o
 .text.do_bootm_linux
                0x00000000808010a0       0x44 arch/arm/lib/built-in.o
                0x00000000808010a0                do_bootm_linux
 .text.boot_prep_vxworks
                0x00000000808010e4       0x34 arch/arm/lib/built-in.o
                0x00000000808010e4                boot_prep_vxworks
 .text.boot_jump_vxworks
                0x0000000080801118        0xa arch/arm/lib/built-in.o
                0x0000000080801118                boot_jump_vxworks
 *fill*         0x0000000080801122        0x2 
 .text.bootz_setup
                0x0000000080801124       0x6c arch/arm/lib/built-in.o
                0x0000000080801124                bootz_setup
 .text.arch_reserve_stacks
                0x0000000080801190       0x16 arch/arm/lib/built-in.o
                0x0000000080801190                arch_reserve_stacks
 *fill*         0x00000000808011a6        0x2 
 .text.interrupt_init
                0x00000000808011a8       0x14 arch/arm/lib/built-in.o
                0x00000000808011a8                interrupt_init
 .text.enable_interrupts
                0x00000000808011bc        0x2 arch/arm/lib/built-in.o
                0x00000000808011bc                enable_interrupts
 .text.disable_interrupts
                0x00000000808011be        0x4 arch/arm/lib/built-in.o
                0x00000000808011be                disable_interrupts
 *fill*         0x00000000808011c2        0x2 
 .text.bad_mode
                0x00000000808011c4        0xc arch/arm/lib/built-in.o
                0x00000000808011c4                bad_mode
 .text.show_regs
                0x00000000808011d0      0x108 arch/arm/lib/built-in.o
                0x00000000808011d0                show_regs
 .text.do_undefined_instruction
                0x00000000808012d8       0x1c arch/arm/lib/built-in.o
                0x00000000808012d8                do_undefined_instruction
 .text.do_software_interrupt
                0x00000000808012f4       0x1c arch/arm/lib/built-in.o
                0x00000000808012f4                do_software_interrupt
 .text.do_prefetch_abort
                0x0000000080801310       0x1c arch/arm/lib/built-in.o
                0x0000000080801310                do_prefetch_abort
 .text.do_data_abort
                0x000000008080132c       0x1c arch/arm/lib/built-in.o
                0x000000008080132c                do_data_abort
 .text.do_not_used
                0x0000000080801348       0x1c arch/arm/lib/built-in.o
                0x0000000080801348                do_not_used
 .text.do_fiq   0x0000000080801364       0x1c arch/arm/lib/built-in.o
                0x0000000080801364                do_fiq
 .text.do_irq   0x0000000080801380       0x1c arch/arm/lib/built-in.o
                0x0000000080801380                do_irq
 .text.reset_misc
                0x000000008080139c        0x2 arch/arm/lib/built-in.o
                0x000000008080139c                reset_misc
 *fill*         0x000000008080139e        0x2 
 .text.do_reset
                0x00000000808013a0       0x28 arch/arm/lib/built-in.o
                0x00000000808013a0                do_reset
 .text.flush_cache
                0x00000000808013c8        0x6 arch/arm/lib/built-in.o
                0x00000000808013c8                flush_cache
 *fill*         0x00000000808013ce        0x2 
 .text.check_cache_range
                0x00000000808013d0       0x20 arch/arm/lib/built-in.o
                0x00000000808013d0                check_cache_range
 .text.cp_delay
                0x00000000808013f0       0x18 arch/arm/lib/built-in.o
 .text.cache_disable
                0x0000000080801408       0x34 arch/arm/lib/built-in.o
 .text.set_section_dcache
                0x000000008080143c       0x12 arch/arm/lib/built-in.o
                0x000000008080143c                set_section_dcache
 .text.icache_enable
                0x000000008080144e       0x18 arch/arm/lib/built-in.o
                0x000000008080144e                icache_enable
 .text.icache_disable
                0x0000000080801466        0x8 arch/arm/lib/built-in.o
                0x0000000080801466                icache_disable
 .text.dcache_enable
                0x000000008080146e       0x70 arch/arm/lib/built-in.o
                0x000000008080146e                dcache_enable
 .text.dcache_disable
                0x00000000808014de        0x6 arch/arm/lib/built-in.o
                0x00000000808014de                dcache_disable
 .text.dcache_status
                0x00000000808014e4        0xa arch/arm/lib/built-in.o
                0x00000000808014e4                dcache_status
 *fill*         0x00000000808014ee        0x2 
 .text          0x00000000808014f0       0x60 arch/arm/mach-omap2/built-in.o
                0x00000000808014f0                save_boot_params
                0x00000000808014fc                omap_smc1
                0x0000000080801518                omap_smc_sec
 .text.get_cpu_rev
                0x0000000080801550       0x10 arch/arm/mach-omap2/built-in.o
                0x0000000080801550                get_cpu_rev
 .text.get_cpu_type
                0x0000000080801560       0x14 arch/arm/mach-omap2/built-in.o
                0x0000000080801560                get_cpu_type
 .text.get_device_type
                0x0000000080801574       0x14 arch/arm/mach-omap2/built-in.o
                0x0000000080801574                get_device_type
 .text.print_cpuinfo
                0x0000000080801588       0x84 arch/arm/mach-omap2/built-in.o
                0x0000000080801588                print_cpuinfo
 .text.dram_init
                0x000000008080160c       0x16 arch/arm/mach-omap2/built-in.o
                0x000000008080160c                dram_init
 .text.dram_init_banksize
                0x0000000080801622       0x16 arch/arm/mach-omap2/built-in.o
                0x0000000080801622                dram_init_banksize
 .text.am33xx_otg0_set_phy_power
                0x0000000080801638       0x20 arch/arm/mach-omap2/built-in.o
 .text.am33xx_otg1_set_phy_power
                0x0000000080801658       0x20 arch/arm/mach-omap2/built-in.o
 .text.cpu_mmc_init
                0x0000000080801678       0x28 arch/arm/mach-omap2/built-in.o
                0x0000000080801678                cpu_mmc_init
 .text.arch_misc_init
                0x00000000808016a0       0x34 arch/arm/mach-omap2/built-in.o
                0x00000000808016a0                arch_misc_init
 .text.arch_cpu_init_dm
                0x00000000808016d4        0x4 arch/arm/mach-omap2/built-in.o
                0x00000000808016d4                arch_cpu_init_dm
 .text.clk_synthesizer_reg_write
                0x00000000808016d8       0x38 arch/arm/mach-omap2/built-in.o
 .text.setup_clock_synthesizer
                0x0000000080801710       0x94 arch/arm/mach-omap2/built-in.o
                0x0000000080801710                setup_clock_synthesizer
 .text.reset_cpu
                0x00000000808017a4       0x10 arch/arm/mach-omap2/built-in.o
                0x00000000808017a4                reset_cpu
 .text.timer_init
                0x00000000808017b4       0x18 arch/arm/mach-omap2/built-in.o
                0x00000000808017b4                timer_init
 .text.__udelay
                0x00000000808017cc       0x34 arch/arm/mach-omap2/built-in.o
                0x00000000808017cc                __udelay
 .text.get_timer_masked
                0x0000000080801800       0x54 arch/arm/mach-omap2/built-in.o
                0x0000000080801800                get_timer_masked
 .text.get_timer
                0x0000000080801854        0xc arch/arm/mach-omap2/built-in.o
                0x0000000080801854                get_timer
 .text.get_ticks
                0x0000000080801860        0xa arch/arm/mach-omap2/built-in.o
                0x0000000080801860                get_ticks
 .text.get_tbclk
                0x000000008080186a        0x6 arch/arm/mach-omap2/built-in.o
                0x000000008080186a                get_tbclk
 .text.enable_caches
                0x0000000080801870        0x4 arch/arm/mach-omap2/built-in.o
                0x0000000080801870                enable_caches
 .text.dram_bank_mmu_setup
                0x0000000080801874       0x26 arch/arm/mach-omap2/built-in.o
                0x0000000080801874                dram_bank_mmu_setup
 .text.arm_init_domains
                0x000000008080189a       0x16 arch/arm/mach-omap2/built-in.o
                0x000000008080189a                arm_init_domains
 .text.fb_set_reboot_flag
                0x00000000808018b0       0x24 arch/arm/mach-omap2/built-in.o
                0x00000000808018b0                fb_set_reboot_flag
 .text.board_ti_is
                0x00000000808018d4       0x30 board/ti/common/built-in.o
                0x00000000808018d4                board_ti_is
 .text.board_ti_get_rev
                0x0000000080801904        0x8 board/ti/common/built-in.o
                0x0000000080801904                board_ti_get_rev
 .text.board_ti_get_config
                0x000000008080190c        0x8 board/ti/common/built-in.o
                0x000000008080190c                board_ti_get_config
 .text.set_board_info_env
                0x0000000080801914       0x3c board/ti/common/built-in.o
                0x0000000080801914                set_board_info_env
 .text.do_go_exec
                0x0000000080801950        0x8 cmd/built-in.o
                0x0000000080801950                do_go_exec
 .text.do_go    0x0000000080801958       0x4c cmd/built-in.o
 .text.do_bootm
                0x00000000808019a4       0xa0 cmd/built-in.o
                0x00000000808019a4                do_bootm
 .text.do_bootd
                0x0000000080801a44       0x18 cmd/built-in.o
                0x0000000080801a44                do_bootd
 .text.image_info
                0x0000000080801a5c       0xd8 cmd/built-in.o
 .text.do_iminfo
                0x0000000080801b34       0x3c cmd/built-in.o
 .text.bootm_maybe_autostart
                0x0000000080801b70       0x4c cmd/built-in.o
                0x0000000080801b70                bootm_maybe_autostart
 .text.do_help  0x0000000080801bbc       0x2c cmd/built-in.o
 .text.do_version
                0x0000000080801be8       0x2c cmd/built-in.o
 .text.source   0x0000000080801c14      0x11c cmd/built-in.o
                0x0000000080801c14                source
 .text.do_source
                0x0000000080801d30       0x50 cmd/built-in.o
 .text.print_num
                0x0000000080801d80       0x10 cmd/built-in.o
 .text.do_bdinfo
                0x0000000080801d90      0x138 cmd/built-in.o
 .text.bootefi_open_dp
                0x0000000080801ec8        0xc cmd/built-in.o
 .text.do_bootefi_exec
                0x0000000080801ed4      0x1d8 cmd/built-in.o
 .text.do_bootefi
                0x00000000808020ac       0x5c cmd/built-in.o
 .text.efi_set_bootdev
                0x0000000080802108       0xd0 cmd/built-in.o
                0x0000000080802108                efi_set_bootdev
 .text.do_bootz
                0x00000000808021d8       0xa4 cmd/built-in.o
                0x00000000808021d8                do_bootz
 .text.do_coninfo
                0x000000008080227c       0x88 cmd/built-in.o
 .text.do_echo  0x0000000080802304       0x74 cmd/built-in.o
 .text.parse_numeric_param
                0x0000000080802378       0x1c cmd/built-in.o
 .text.parse_i2c_bus_addr
                0x0000000080802394       0x54 cmd/built-in.o
 .text.eeprom_write_enable
                0x00000000808023e8        0x4 cmd/built-in.o
                0x00000000808023e8                eeprom_write_enable
 .text.eeprom_init
                0x00000000808023ec       0x18 cmd/built-in.o
                0x00000000808023ec                eeprom_init
 .text.eeprom_read
                0x0000000080802404       0x4c cmd/built-in.o
                0x0000000080802404                eeprom_read
 .text.eeprom_write
                0x0000000080802450       0x6c cmd/built-in.o
                0x0000000080802450                eeprom_write
 .text.do_eeprom
                0x00000000808024bc       0xd4 cmd/built-in.o
                0x00000000808024bc                do_eeprom
 .text.load_elf_image_shdr
                0x0000000080802590       0x4a cmd/built-in.o
 *fill*         0x00000000808025da        0x2 
 .text.valid_elf_image
                0x00000000808025dc       0x30 cmd/built-in.o
                0x00000000808025dc                valid_elf_image
 .text.do_bootelf
                0x000000008080260c      0x118 cmd/built-in.o
                0x000000008080260c                do_bootelf
 .text.do_bootvx
                0x0000000080802724      0x248 cmd/built-in.o
                0x0000000080802724                do_bootvx
 .text.do_exit  0x000000008080296c       0x20 cmd/built-in.o
 .text.do_ext4_size
                0x000000008080298c        0xe cmd/built-in.o
                0x000000008080298c                do_ext4_size
 .text.do_ext4_load
                0x000000008080299a        0xe cmd/built-in.o
                0x000000008080299a                do_ext4_load
 .text.do_ext4_ls
                0x00000000808029a8        0xe cmd/built-in.o
                0x00000000808029a8                do_ext4_ls
 .text.do_ext4_write
                0x00000000808029b6        0xe cmd/built-in.o
                0x00000000808029b6                do_ext4_write
 .text.do_ext2load
                0x00000000808029c4        0xe cmd/built-in.o
                0x00000000808029c4                do_ext2load
 .text.do_ext2ls
                0x00000000808029d2        0xe cmd/built-in.o
 .text.do_fat_size
                0x00000000808029e0        0xe cmd/built-in.o
                0x00000000808029e0                do_fat_size
 .text.do_fat_fsload
                0x00000000808029ee        0xe cmd/built-in.o
                0x00000000808029ee                do_fat_fsload
 .text.do_fat_ls
                0x00000000808029fc        0xe cmd/built-in.o
 *fill*         0x0000000080802a0a        0x2 
 .text.do_fat_fsinfo
                0x0000000080802a0c       0x54 cmd/built-in.o
 .text.do_fat_fswrite
                0x0000000080802a60       0xbc cmd/built-in.o
 .text.fdt_valid
                0x0000000080802b1c       0x74 cmd/built-in.o
 .text.is_printable_string
                0x0000000080802b90       0x48 cmd/built-in.o
 .text.print_data
                0x0000000080802bd8      0x104 cmd/built-in.o
 .text.set_working_fdt_addr
                0x0000000080802cdc       0x14 cmd/built-in.o
                0x0000000080802cdc                set_working_fdt_addr
 .text.do_fdt   0x0000000080802cf0      0x984 cmd/built-in.o
 .text.do_size_wrapper
                0x0000000080803674        0xe cmd/built-in.o
 *fill*         0x0000000080803682        0x2 
 .text.do_load_wrapper
                0x0000000080803684       0x40 cmd/built-in.o
 .text.do_save_wrapper
                0x00000000808036c4        0xe cmd/built-in.o
 .text.do_ls_wrapper
                0x00000000808036d2        0xe cmd/built-in.o
 .text.do_fstype_wrapper
                0x00000000808036e0        0x4 cmd/built-in.o
 .text.gpio_get_description
                0x00000000808036e4       0x78 cmd/built-in.o
 .text.do_gpio  0x000000008080375c      0x20c cmd/built-in.o
 .text.do_i2c   0x0000000080803968       0x3c cmd/built-in.o
 .text.do_i2c_bus_speed
                0x00000000808039a4       0x54 cmd/built-in.o
 .text.do_i2c_reset
                0x00000000808039f8       0x20 cmd/built-in.o
 .text.do_i2c_probe
                0x0000000080803a18       0x5c cmd/built-in.o
 .text.do_i2c_bus_num
                0x0000000080803a74       0x80 cmd/built-in.o
 .text.do_i2c_show_bus
                0x0000000080803af4       0x8c cmd/built-in.o
 .text.get_alen.constprop.8
                0x0000000080803b80       0x1c cmd/built-in.o
 .text.do_i2c_crc
                0x0000000080803b9c       0xb8 cmd/built-in.o
 .text.mod_i2c_mem.isra.5.part.6
                0x0000000080803c54      0x13c cmd/built-in.o
 .text.do_i2c_nm
                0x0000000080803d90       0x12 cmd/built-in.o
 *fill*         0x0000000080803da2        0x2 
 .text.do_i2c_md
                0x0000000080803da4      0x14c cmd/built-in.o
 .text.do_i2c_read
                0x0000000080803ef0       0x78 cmd/built-in.o
 .text.do_i2c_mw
                0x0000000080803f68       0xa4 cmd/built-in.o
 .text.do_i2c_write
                0x000000008080400c       0xd8 cmd/built-in.o
 .text.do_i2c_loop
                0x00000000808040e4       0x9c cmd/built-in.o
 .text.do_i2c_mm
                0x0000000080804180       0x12 cmd/built-in.o
 .text.i2c_init_board
                0x0000000080804192        0x2 cmd/built-in.o
                0x0000000080804192                i2c_init_board
 .text.evalexp  0x0000000080804194       0x44 cmd/built-in.o
 .text.evalstr  0x00000000808041d8       0x3c cmd/built-in.o
 .text.binary_test
                0x0000000080804214      0x100 cmd/built-in.o
 .text.do_itest
                0x0000000080804314       0x4c cmd/built-in.o
 .text.bin_data_init
                0x0000000080804360       0x1c cmd/built-in.o
 .text.k_data_save
                0x000000008080437c       0x34 cmd/built-in.o
 .text.k_data_restore
                0x00000000808043b0       0x34 cmd/built-in.o
 .text.getcxmodem
                0x00000000808043e4       0x16 cmd/built-in.o
 *fill*         0x00000000808043fa        0x2 
 .text.load_serial_ymodem
                0x00000000808043fc       0x90 cmd/built-in.o
 .text.bin_data_char
                0x000000008080448c       0x1c cmd/built-in.o
 .text.chk1.constprop.1
                0x00000000808044a8       0x20 cmd/built-in.o
 .text.s1_sendpacket.constprop.2
                0x00000000808044c8       0x34 cmd/built-in.o
 .text.load_serial
                0x00000000808044fc      0x12c cmd/built-in.o
 .text.do_load_serial
                0x0000000080804628       0x8c cmd/built-in.o
 .text.do_load_serial_bin
                0x00000000808046b4      0x514 cmd/built-in.o
 .text.do_mem_md
                0x0000000080804bc8       0xa0 cmd/built-in.o
 .text.do_mem_base
                0x0000000080804c68       0x28 cmd/built-in.o
 .text.do_mem_crc
                0x0000000080804c90       0x2c cmd/built-in.o
 .text.do_mem_mw
                0x0000000080804cbc       0x7c cmd/built-in.o
 .text.do_mem_loop
                0x0000000080804d38       0x82 cmd/built-in.o
 *fill*         0x0000000080804dba        0x2 
 .text.mod_mem.isra.2.part.3
                0x0000000080804dbc       0xe8 cmd/built-in.o
 .text.do_mem_mm
                0x0000000080804ea4       0x12 cmd/built-in.o
 *fill*         0x0000000080804eb6        0x2 
 .text.do_mem_cp
                0x0000000080804eb8       0x8c cmd/built-in.o
 .text.do_mem_cmp
                0x0000000080804f44      0x100 cmd/built-in.o
 .text.do_mem_nm
                0x0000000080805044       0x12 cmd/built-in.o
 .text.extract_range
                0x0000000080805056       0x7a cmd/built-in.o
 .text.do_mii   0x00000000808050d0      0x5fc cmd/built-in.o
 .text.do_mdio  0x00000000808056cc      0x300 cmd/built-in.o
 .text.do_sleep
                0x00000000808059cc       0x88 cmd/built-in.o
 .text.do_mmcops
                0x0000000080805a54       0x78 cmd/built-in.o
 .text.init_mmc_device
                0x0000000080805acc       0x34 cmd/built-in.o
 .text.do_mmc_rescan
                0x0000000080805b00       0x18 cmd/built-in.o
 .text.do_mmc_hwpartition
                0x0000000080805b18      0x38c cmd/built-in.o
 .text.do_mmc_list
                0x0000000080805ea4        0xc cmd/built-in.o
 .text.do_mmc_dev
                0x0000000080805eb0       0xc4 cmd/built-in.o
 .text.do_mmcinfo
                0x0000000080805f74      0x28c cmd/built-in.o
 .text.do_mmc_setdsr
                0x0000000080806200       0x70 cmd/built-in.o
 .text.do_mmc_part
                0x0000000080806270       0x38 cmd/built-in.o
 .text.do_mmc_erase
                0x00000000808062a8       0x9c cmd/built-in.o
 .text.do_mmc_write
                0x0000000080806344       0xb0 cmd/built-in.o
 .text.do_mmc_read
                0x00000000808063f4       0xa4 cmd/built-in.o
 .text.netboot_common
                0x0000000080806498      0x1c4 cmd/built-in.o
 .text.do_bootp
                0x000000008080665c        0x8 cmd/built-in.o
 .text.do_dhcp  0x0000000080806664        0x8 cmd/built-in.o
 .text.do_nfs   0x000000008080666c        0x8 cmd/built-in.o
 .text.do_tftpb
                0x0000000080806674       0x26 cmd/built-in.o
                0x0000000080806674                do_tftpb
 *fill*         0x000000008080669a        0x2 
 .text.do_ping  0x000000008080669c       0x48 cmd/built-in.o
 .text.do_part_list
                0x00000000808066e4       0xf0 cmd/built-in.o
 .text.do_part_start
                0x00000000808067d4       0x84 cmd/built-in.o
 .text.do_part_size
                0x0000000080806858       0x84 cmd/built-in.o
 .text.do_part  0x00000000808068dc       0xb0 cmd/built-in.o
 .text.eol_or_eof
                0x000000008080698c       0x12 cmd/built-in.o
 *fill*         0x000000008080699e        0x2 
 .text.do_pxe   0x00000000808069a0       0x48 cmd/built-in.o
 .text.label_print
                0x00000000808069e8       0x14 cmd/built-in.o
 .text.do_get_tftp
                0x00000000808069fc       0x2c cmd/built-in.o
 .text.from_env
                0x0000000080806a28       0x1c cmd/built-in.o
 .text.get_string
                0x0000000080806a44       0x7c cmd/built-in.o
 .text.label_destroy
                0x0000000080806ac0       0x3e cmd/built-in.o
 .text.destroy_pxe_menu
                0x0000000080806afe       0x36 cmd/built-in.o
 .text.get_token
                0x0000000080806b34       0x98 cmd/built-in.o
 .text.parse_sliteral
                0x0000000080806bcc       0x34 cmd/built-in.o
 .text.parse_integer
                0x0000000080806c00       0x44 cmd/built-in.o
 .text.do_get_any
                0x0000000080806c44       0x2c cmd/built-in.o
 .text.do_get_fat
                0x0000000080806c70       0x28 cmd/built-in.o
 .text.do_get_ext2
                0x0000000080806c98       0x28 cmd/built-in.o
 .text.format_mac_pxe.constprop.7
                0x0000000080806cc0       0x54 cmd/built-in.o
 .text.get_relfile
                0x0000000080806d14       0xcc cmd/built-in.o
 .text.get_pxe_file
                0x0000000080806de0       0x3c cmd/built-in.o
 .text.handle_include
                0x0000000080806e1c       0x68 cmd/built-in.o
 .text.parse_pxefile_top
                0x0000000080806e84      0x2f8 cmd/built-in.o
 .text.parse_pxefile
                0x000000008080717c       0x42 cmd/built-in.o
 *fill*         0x00000000808071be        0x2 
 .text.get_pxelinux_path
                0x00000000808071c0       0x50 cmd/built-in.o
 .text.do_pxe_get
                0x0000000080807210       0xec cmd/built-in.o
 .text.get_relfile_envaddr
                0x00000000808072fc       0x34 cmd/built-in.o
 .text.label_boot
                0x0000000080807330      0x3c0 cmd/built-in.o
 .text.handle_pxe_menu
                0x00000000808076f0       0xd8 cmd/built-in.o
 .text.do_pxe_boot
                0x00000000808077c8       0x94 cmd/built-in.o
 .text.do_sysboot
                0x000000008080785c      0x140 cmd/built-in.o
 .text.bytes_per_second
                0x000000008080799c       0x38 cmd/built-in.o
 .text.do_spi_flash
                0x00000000808079d4      0x564 cmd/built-in.o
 .text.do_spi   0x0000000080807f38      0x1b0 cmd/built-in.o
                0x0000000080807f38                do_spi
 .text.do_false
                0x00000000808080e8        0x4 cmd/built-in.o
 .text.do_true  0x00000000808080ec        0x4 cmd/built-in.o
 .text.do_test  0x00000000808080f0      0x200 cmd/built-in.o
 .text.usb_get_class_desc
                0x00000000808082f0       0x7c cmd/built-in.o
 .text.usb_find_device
                0x000000008080836c       0x1e cmd/built-in.o
 *fill*         0x000000008080838a        0x2 
 .text.usb_show_tree_graph
                0x000000008080838c      0x17c cmd/built-in.o
 .text.usb_display_class_sub
                0x0000000080808508       0xf8 cmd/built-in.o
 .text.usb_display_string
                0x0000000080808600       0x2c cmd/built-in.o
 .text.usb_display_config
                0x000000008080862c      0x1ac cmd/built-in.o
 .text.do_usbboot
                0x00000000808087d8        0xc cmd/built-in.o
 .text.usb_display_desc.part.1
                0x00000000808087e4       0xd0 cmd/built-in.o
 .text.do_usb_start
                0x00000000808088b4       0x20 cmd/built-in.o
 .text.usb_show_tree
                0x00000000808088d4       0x30 cmd/built-in.o
                0x00000000808088d4                usb_show_tree
 .text.do_usb   0x0000000080808904      0x4c8 cmd/built-in.o
 .text.common_diskboot
                0x0000000080808dcc      0x1c8 cmd/built-in.o
                0x0000000080808dcc                common_diskboot
 .text.do_fastboot
                0x0000000080808f94       0x94 cmd/built-in.o
 .text.do_imgextract
                0x0000000080809028      0x28c cmd/built-in.o
 .text.do_spl   0x00000000808092b4      0x108 cmd/built-in.o
 .text.do_dfu   0x00000000808093bc       0x84 cmd/built-in.o
 .text.extract_val
                0x0000000080809440       0x58 cmd/built-in.o
 .text.extract_env
                0x0000000080809498       0x80 cmd/built-in.o
 .text.set_gpt_info.isra.0.constprop.2
                0x0000000080809518      0x2a0 cmd/built-in.o
 .text.do_gpt   0x00000000808097b8      0x1d0 cmd/built-in.o
 .text.do_env_delete
                0x0000000080809988       0x68 cmd/built-in.o
 .text.do_env_save
                0x00000000808099f0       0x20 cmd/built-in.o
 .text.do_env   0x0000000080809a10       0x3c cmd/built-in.o
 .text.env_print
                0x0000000080809a4c       0x78 cmd/built-in.o
 .text.do_env_print
                0x0000000080809ac4       0x7c cmd/built-in.o
 .text.do_env_import
                0x0000000080809b40      0x188 cmd/built-in.o
 .text.do_env_default
                0x0000000080809cc8       0x50 cmd/built-in.o
 .text.do_env_exists
                0x0000000080809d18       0x40 cmd/built-in.o
 .text._do_env_set.isra.1
                0x0000000080809d58      0x118 cmd/built-in.o
 .text.do_env_set
                0x0000000080809e70       0x14 cmd/built-in.o
 .text.do_env_ask
                0x0000000080809e84       0xe0 cmd/built-in.o
                0x0000000080809e84                do_env_ask
 .text.get_env_id
                0x0000000080809f64        0xc cmd/built-in.o
                0x0000000080809f64                get_env_id
 .text.setenv   0x0000000080809f70       0x3c cmd/built-in.o
                0x0000000080809f70                setenv
 .text.setenv_ulong
                0x0000000080809fac       0x16 cmd/built-in.o
                0x0000000080809fac                setenv_ulong
 *fill*         0x0000000080809fc2        0x2 
 .text.setenv_hex
                0x0000000080809fc4       0x20 cmd/built-in.o
                0x0000000080809fc4                setenv_hex
 .text.do_env_export
                0x0000000080809fe4      0x170 cmd/built-in.o
 .text.envmatch
                0x000000008080a154       0x44 cmd/built-in.o
                0x000000008080a154                envmatch
 .text.getenv_f
                0x000000008080a198       0x7c cmd/built-in.o
                0x000000008080a198                getenv_f
 .text.getenv   0x000000008080a214       0x54 cmd/built-in.o
                0x000000008080a214                getenv
 .text.getenv_hex
                0x000000008080a268       0x20 cmd/built-in.o
                0x000000008080a268                getenv_hex
 .text.getenv_ulong
                0x000000008080a288       0x1c cmd/built-in.o
                0x000000008080a288                getenv_ulong
 .text.do_env_edit.part.4
                0x000000008080a2a4       0x70 cmd/built-in.o
 .text.do_env_edit
                0x000000008080a314       0x1c cmd/built-in.o
 .text.board_init_f_alloc_reserve
                0x000000008080a330        0xa common/built-in.o
                0x000000008080a330                board_init_f_alloc_reserve
 .text.board_init_f_init_reserve
                0x000000008080a33a       0x14 common/built-in.o
                0x000000008080a33a                board_init_f_init_reserve
 .text.show_boot_progress
                0x000000008080a34e        0x4 common/built-in.o
                0x000000008080a34e                show_boot_progress
 *fill*         0x000000008080a352        0x2 
 .text.main_loop
                0x000000008080a354       0x34 common/built-in.o
                0x000000008080a354                main_loop
 .text.dummy    0x000000008080a388        0x2 common/built-in.o
 .text.get_version
                0x000000008080a38a        0x4 common/built-in.o
                0x000000008080a38a                get_version
 *fill*         0x000000008080a38e        0x2 
 .text.jumptable_init
                0x000000008080a390      0x198 common/built-in.o
                0x000000008080a390                jumptable_init
 .text.hash_finish_crc32
                0x000000008080a528       0x1c common/built-in.o
 .text.hash_update_crc32
                0x000000008080a544       0x14 common/built-in.o
 .text.hash_init_crc32
                0x000000008080a558       0x14 common/built-in.o
 .text.hash_finish_sha256
                0x000000008080a56c       0x22 common/built-in.o
 .text.hash_update_sha256
                0x000000008080a58e       0x10 common/built-in.o
 .text.hash_init_sha256
                0x000000008080a59e       0x16 common/built-in.o
 .text.hash_finish_sha1
                0x000000008080a5b4       0x22 common/built-in.o
 .text.hash_update_sha1
                0x000000008080a5d6       0x10 common/built-in.o
 .text.hash_init_sha1
                0x000000008080a5e6       0x16 common/built-in.o
 .text.hash_lookup_algo
                0x000000008080a5fc       0x38 common/built-in.o
                0x000000008080a5fc                hash_lookup_algo
 .text.hash_command
                0x000000008080a634      0x128 common/built-in.o
                0x000000008080a634                hash_command
 .text.b_reset  0x000000008080a75c        0xe common/built-in.o
 .text.static_get
                0x000000008080a76a       0x12 common/built-in.o
 .text.static_peek
                0x000000008080a77c        0x6 common/built-in.o
 *fill*         0x000000008080a782        0x2 
 .text.mapset   0x000000008080a784       0x14 common/built-in.o
 .text.syntax_err
                0x000000008080a798        0xc common/built-in.o
 .text.free_pipe_list
                0x000000008080a7a4       0x90 common/built-in.o
 .text.xmalloc  0x000000008080a834       0x18 common/built-in.o
 .text.new_pipe
                0x000000008080a84c       0x16 common/built-in.o
 *fill*         0x000000008080a862        0x2 
 .text.xrealloc
                0x000000008080a864       0x18 common/built-in.o
 .text.done_command
                0x000000008080a87c       0x42 common/built-in.o
 .text.done_pipe
                0x000000008080a8be       0x2a common/built-in.o
 .text.done_word
                0x000000008080a8e8      0x1cc common/built-in.o
 .text.is_assignment
                0x000000008080aab4       0x2c common/built-in.o
 .text.file_get
                0x000000008080aae0      0x13c common/built-in.o
 .text.do_showvar
                0x000000008080ac1c       0x9c common/built-in.o
 .text.b_addchr
                0x000000008080acb8       0x42 common/built-in.o
 *fill*         0x000000008080acfa        0x2 
 .text.b_addqchr
                0x000000008080acfc       0x30 common/built-in.o
 .text.file_peek
                0x000000008080ad2c        0x6 common/built-in.o
 *fill*         0x000000008080ad32        0x2 
 .text.get_local_var
                0x000000008080ad34       0x58 common/built-in.o
                0x000000008080ad34                get_local_var
 .text.set_local_var
                0x000000008080ad8c      0x10c common/built-in.o
                0x000000008080ad8c                set_local_var
 .text.insert_var_value_sub
                0x000000008080ae98      0x1c4 common/built-in.o
 .text.parse_string_outer
                0x000000008080b05c       0x90 common/built-in.o
                0x000000008080b05c                parse_string_outer
 .text.run_list_real
                0x000000008080b0ec      0x4e4 common/built-in.o
 .text.parse_stream_outer
                0x000000008080b5d0      0x424 common/built-in.o
 .text.parse_file_outer
                0x000000008080b9f4       0x2c common/built-in.o
                0x000000008080b9f4                parse_file_outer
 .text.u_boot_hush_start
                0x000000008080ba20       0x30 common/built-in.o
                0x000000008080ba20                u_boot_hush_start
 .text.bootdelay_process
                0x000000008080ba50       0x78 common/built-in.o
                0x000000008080ba50                bootdelay_process
 .text.autoboot_command
                0x000000008080bac8      0x14c common/built-in.o
                0x000000008080bac8                autoboot_command
 .text.display_text_info
                0x000000008080bc14        0x4 common/built-in.o
 .text.setup_mon_len
                0x000000008080bc18       0x18 common/built-in.o
 .text.reserve_round_4k
                0x000000008080bc30       0x14 common/built-in.o
 .text.reserve_mmu
                0x000000008080bc44       0x2e common/built-in.o
 .text.reserve_uboot
                0x000000008080bc72       0x2a common/built-in.o
 .text.reserve_malloc
                0x000000008080bc9c       0x14 common/built-in.o
 .text.setup_machine
                0x000000008080bcb0        0xe common/built-in.o
 .text.reserve_global_data
                0x000000008080bcbe       0x16 common/built-in.o
 .text.reserve_fdt
                0x000000008080bcd4       0x3a common/built-in.o
 .text.init_func_watchdog_reset
                0x000000008080bd0e        0xa common/built-in.o
                0x000000008080bd0e                init_func_watchdog_reset
 .text.announce_dram_init
                0x000000008080bd18       0x10 common/built-in.o
 .text.init_func_i2c
                0x000000008080bd28       0x20 common/built-in.o
 .text.init_baud_rate
                0x000000008080bd48       0x1c common/built-in.o
 .text.mark_bootstage
                0x000000008080bd64        0xc common/built-in.o
 .text.initf_dm
                0x000000008080bd70        0x6 common/built-in.o
 .text.setup_reloc
                0x000000008080bd76       0x26 common/built-in.o
 .text.reloc_fdt
                0x000000008080bd9c       0x2c common/built-in.o
 .text.reserve_board
                0x000000008080bdc8       0x28 common/built-in.o
 .text.reserve_arch
                0x000000008080bdf0        0x4 common/built-in.o
                0x000000008080bdf0                reserve_arch
 .text.arch_cpu_init
                0x000000008080bdf4        0x4 common/built-in.o
                0x000000008080bdf4                arch_cpu_init
 .text.mach_cpu_init
                0x000000008080bdf8        0x4 common/built-in.o
                0x000000008080bdf8                mach_cpu_init
 .text.reserve_trace
                0x000000008080bdfc        0x4 common/built-in.o
 .text.display_new_sp
                0x000000008080be00        0x4 common/built-in.o
 .text.initf_console_record
                0x000000008080be04        0x4 common/built-in.o
 .text.init_func_watchdog_init
                0x000000008080be08        0xa common/built-in.o
 .text.coloured_LED_init
                0x000000008080be12        0x2 common/built-in.o
                0x000000008080be12                coloured_LED_init
 .text.red_led_on
                0x000000008080be14        0x2 common/built-in.o
                0x000000008080be14                red_led_on
 .text.board_add_ram_info
                0x000000008080be16        0x2 common/built-in.o
                0x000000008080be16                board_add_ram_info
 .text.show_dram_config
                0x000000008080be18       0x28 common/built-in.o
 .text.setup_dram_config
                0x000000008080be40        0xa common/built-in.o
 .text.board_get_usable_ram_top
                0x000000008080be4a       0x10 common/built-in.o
                0x000000008080be4a                board_get_usable_ram_top
 .text.board_reserve_ram_top
                0x000000008080be5a        0x2 common/built-in.o
                0x000000008080be5a                board_reserve_ram_top
 .text.setup_dest_addr
                0x000000008080be5c       0x3c common/built-in.o
 .text.reserve_stacks
                0x000000008080be98       0x1a common/built-in.o
 *fill*         0x000000008080beb2        0x2 
 .text.board_init_f
                0x000000008080beb4       0x20 common/built-in.o
                0x000000008080beb4                board_init_f
 .text.bootstage_relocate
                0x000000008080bed4        0x4 common/built-in.o
 .text.initr_trace
                0x000000008080bed8        0x4 common/built-in.o
 .text.initr_reloc
                0x000000008080bedc       0x14 common/built-in.o
 .text.run_main_loop
                0x000000008080bef0        0x8 common/built-in.o
 .text.initr_net
                0x000000008080bef8       0x14 common/built-in.o
 .text.initr_ethaddr
                0x000000008080bf0c       0x18 common/built-in.o
 .text.initr_enable_interrupts
                0x000000008080bf24        0xa common/built-in.o
 .text.initr_jumptable
                0x000000008080bf2e        0xa common/built-in.o
 .text.initr_env
                0x000000008080bf38       0x20 common/built-in.o
 .text.initr_mmc
                0x000000008080bf58       0x18 common/built-in.o
 .text.initr_serial
                0x000000008080bf70        0xa common/built-in.o
 .text.initr_bootstage
                0x000000008080bf7a        0xc common/built-in.o
 .text.initr_dm
                0x000000008080bf86       0x12 common/built-in.o
 .text.initr_malloc
                0x000000008080bf98       0x1c common/built-in.o
 .text.initr_reloc_global_data
                0x000000008080bfb4       0x28 common/built-in.o
 .text.initr_caches
                0x000000008080bfdc        0xa common/built-in.o
 .text.initr_announce
                0x000000008080bfe6        0x4 common/built-in.o
 .text.initr_barrier
                0x000000008080bfea        0x4 common/built-in.o
 .text.initr_console_record
                0x000000008080bfee        0x4 common/built-in.o
 .text.power_init_board
                0x000000008080bff2        0x4 common/built-in.o
                0x000000008080bff2                power_init_board
 .text.cpu_secondary_init_r
                0x000000008080bff6        0x2 common/built-in.o
                0x000000008080bff6                cpu_secondary_init_r
 .text.initr_secondary_cpu
                0x000000008080bff8        0xa common/built-in.o
 *fill*         0x000000008080c002        0x2 
 .text.board_init_r
                0x000000008080c004       0x10 common/built-in.o
                0x000000008080c004                board_init_r
 .text.checkboard
                0x000000008080c014        0x4 common/built-in.o
                0x000000008080c014                checkboard
 .text.show_board_info
                0x000000008080c018        0x4 common/built-in.o
                0x000000008080c018                show_board_info
 .text.bootm_find_images
                0x000000008080c01c       0x88 common/built-in.o
                0x000000008080c01c                bootm_find_images
 .text.bootm_decomp_image
                0x000000008080c0a4       0xfc common/built-in.o
                0x000000008080c0a4                bootm_decomp_image
 .text.bootm_disable_interrupts
                0x000000008080c1a0       0x10 common/built-in.o
                0x000000008080c1a0                bootm_disable_interrupts
 .text.do_bootm_states
                0x000000008080c1b0      0x698 common/built-in.o
                0x000000008080c1b0                do_bootm_states
 .text.copy_args
                0x000000008080c848       0x36 common/built-in.o
 *fill*         0x000000008080c87e        0x2 
 .text.do_bootm_rtems
                0x000000008080c880       0x30 common/built-in.o
 .text.do_bootm_plan9
                0x000000008080c8b0       0x70 common/built-in.o
 .text.do_bootm_standalone
                0x000000008080c920       0x40 common/built-in.o
 .text.do_bootm_qnxelf
                0x000000008080c960       0x40 common/built-in.o
 .text.do_bootm_netbsd
                0x000000008080c9a0       0xac common/built-in.o
 .text.do_bootvx_fdt
                0x000000008080ca4c       0xc8 common/built-in.o
                0x000000008080ca4c                do_bootvx_fdt
 .text.do_bootm_vxworks
                0x000000008080cb14       0x1a common/built-in.o
 .text.arch_preboot_os
                0x000000008080cb2e        0x2 common/built-in.o
                0x000000008080cb2e                arch_preboot_os
 .text.boot_selected_os
                0x000000008080cb30       0x3a common/built-in.o
                0x000000008080cb30                boot_selected_os
 *fill*         0x000000008080cb6a        0x2 
 .text.bootm_os_get_boot_func
                0x000000008080cb6c        0xc common/built-in.o
                0x000000008080cb6c                bootm_os_get_boot_func
 .text.regex_callback
                0x000000008080cb78       0xd0 common/built-in.o
 .text.env_attr_walk
                0x000000008080cc48       0xb2 common/built-in.o
                0x000000008080cc48                env_attr_walk
 *fill*         0x000000008080ccfa        0x2 
 .text.env_attr_lookup
                0x000000008080ccfc       0x4c common/built-in.o
                0x000000008080ccfc                env_attr_lookup
 .text.clear_callback
                0x000000008080cd48        0x8 common/built-in.o
 .text.find_env_callback
                0x000000008080cd50       0x38 common/built-in.o
 .text.on_callbacks
                0x000000008080cd88       0x38 common/built-in.o
 .text.set_callback
                0x000000008080cdc0       0x54 common/built-in.o
 .text.env_callback_init
                0x000000008080ce14       0x78 common/built-in.o
                0x000000008080ce14                env_callback_init
 .text.skip_num
                0x000000008080ce8c       0x3c common/built-in.o
 .text.clear_flags
                0x000000008080cec8        0x8 common/built-in.o
 .text.on_flags
                0x000000008080ced0       0x38 common/built-in.o
 .text.env_flags_parse_vartype
                0x000000008080cf08       0x30 common/built-in.o
                0x000000008080cf08                env_flags_parse_vartype
 .text.env_flags_parse_varaccess
                0x000000008080cf38       0x30 common/built-in.o
                0x000000008080cf38                env_flags_parse_varaccess
 .text.set_flags
                0x000000008080cf68       0x68 common/built-in.o
 .text.eth_validate_ethaddr_str
                0x000000008080cfd0       0x50 common/built-in.o
                0x000000008080cfd0                eth_validate_ethaddr_str
 .text.env_flags_init
                0x000000008080d020       0x90 common/built-in.o
                0x000000008080d020                env_flags_init
 .text.env_flags_validate
                0x000000008080d0b0      0x188 common/built-in.o
                0x000000008080d0b0                env_flags_validate
 .text.mmc_get_env_addr
                0x000000008080d238       0x12 common/built-in.o
                0x000000008080d238                mmc_get_env_addr
 .text.mmc_get_env_dev
                0x000000008080d24a        0x4 common/built-in.o
                0x000000008080d24a                mmc_get_env_dev
 *fill*         0x000000008080d24e        0x2 
 .text.fini_mmc_for_env.isra.0
                0x000000008080d250       0x1c common/built-in.o
 .text.env_init
                0x000000008080d26c       0x14 common/built-in.o
                0x000000008080d26c                env_init
 .text.mmc_get_env_part
                0x000000008080d280        0x4 common/built-in.o
                0x000000008080d280                mmc_get_env_part
 .text.init_mmc_for_env
                0x000000008080d284       0x58 common/built-in.o
 .text.saveenv  0x000000008080d2dc      0x108 common/built-in.o
                0x000000008080d2dc                saveenv
 .text.env_relocate_spec
                0x000000008080d3e4      0x1c4 common/built-in.o
                0x000000008080d3e4                env_relocate_spec
 .text.fdt_find_and_setprop
                0x000000008080d5a8       0x46 common/built-in.o
                0x000000008080d5a8                fdt_find_and_setprop
 *fill*         0x000000008080d5ee        0x2 
 .text.fdt_find_or_add_subnode
                0x000000008080d5f0       0x40 common/built-in.o
                0x000000008080d5f0                fdt_find_or_add_subnode
 .text.fdt_root
                0x000000008080d630       0x60 common/built-in.o
                0x000000008080d630                fdt_root
 .text.fdt_initrd
                0x000000008080d690      0x120 common/built-in.o
                0x000000008080d690                fdt_initrd
 .text.fdt_chosen
                0x000000008080d7b0       0x6c common/built-in.o
                0x000000008080d7b0                fdt_chosen
 .text.do_fixup_by_path
                0x000000008080d81c       0x34 common/built-in.o
                0x000000008080d81c                do_fixup_by_path
 .text.fdt_fixup_memory_banks
                0x000000008080d850      0x150 common/built-in.o
                0x000000008080d850                fdt_fixup_memory_banks
 .text.fdt_fixup_memory
                0x000000008080d9a0       0x16 common/built-in.o
                0x000000008080d9a0                fdt_fixup_memory
 *fill*         0x000000008080d9b6        0x2 
 .text.fdt_fixup_ethernet
                0x000000008080d9b8      0x108 common/built-in.o
                0x000000008080d9b8                fdt_fixup_ethernet
 .text.fdt_shrink_to_minimum
                0x000000008080dac0       0x8e common/built-in.o
                0x000000008080dac0                fdt_shrink_to_minimum
 *fill*         0x000000008080db4e        0x2 
 .text.miiphy_get_dev_by_name
                0x000000008080db50       0x34 common/built-in.o
                0x000000008080db50                miiphy_get_dev_by_name
 .text.miiphy_init
                0x000000008080db84       0x18 common/built-in.o
                0x000000008080db84                miiphy_init
 .text.mdio_alloc
                0x000000008080db9c       0x1c common/built-in.o
                0x000000008080db9c                mdio_alloc
 .text.mdio_register
                0x000000008080dbb8       0x4c common/built-in.o
                0x000000008080dbb8                mdio_register
 .text.mdio_list_devices
                0x000000008080dc04       0x74 common/built-in.o
                0x000000008080dc04                mdio_list_devices
 .text.miiphy_set_current_dev
                0x000000008080dc78       0x28 common/built-in.o
                0x000000008080dc78                miiphy_set_current_dev
 .text.miiphy_get_active_dev
                0x000000008080dca0       0x30 common/built-in.o
 .text.mdio_get_current_dev
                0x000000008080dcd0        0xc common/built-in.o
                0x000000008080dcd0                mdio_get_current_dev
 .text.mdio_phydev_for_ethname
                0x000000008080dcdc       0x50 common/built-in.o
                0x000000008080dcdc                mdio_phydev_for_ethname
 .text.miiphy_get_current_dev
                0x000000008080dd2c       0x10 common/built-in.o
                0x000000008080dd2c                miiphy_get_current_dev
 .text.miiphy_read
                0x000000008080dd3c       0x28 common/built-in.o
                0x000000008080dd3c                miiphy_read
 .text.miiphy_write
                0x000000008080dd64       0x24 common/built-in.o
                0x000000008080dd64                miiphy_write
 .text.miiphy_listdev
                0x000000008080dd88       0x54 common/built-in.o
                0x000000008080dd88                miiphy_listdev
 .text.miiphy_info
                0x000000008080dddc       0x5c common/built-in.o
                0x000000008080dddc                miiphy_info
 .text.miiphy_is_1000base_x
                0x000000008080de38       0x30 common/built-in.o
                0x000000008080de38                miiphy_is_1000base_x
 .text.miiphy_speed
                0x000000008080de68       0xb8 common/built-in.o
                0x000000008080de68                miiphy_speed
 .text.miiphy_duplex
                0x000000008080df20       0xd0 common/built-in.o
                0x000000008080df20                miiphy_duplex
 .text.usb_set_maxpacket_ep
                0x000000008080dff0       0x56 common/built-in.o
 *fill*         0x000000008080e046        0x2 
 .text.usb_stop
                0x000000008080e048       0x38 common/built-in.o
                0x000000008080e048                usb_stop
 .text.usb_disable_asynch
                0x000000008080e080       0x14 common/built-in.o
                0x000000008080e080                usb_disable_asynch
 .text.usb_control_msg
                0x000000008080e094       0x84 common/built-in.o
                0x000000008080e094                usb_control_msg
 .text.usb_get_descriptor
                0x000000008080e118       0x36 common/built-in.o
 *fill*         0x000000008080e14e        0x2 
 .text.get_descriptor_len
                0x000000008080e150       0x60 common/built-in.o
 .text.usb_get_string
                0x000000008080e1b0       0x50 common/built-in.o
 .text.usb_string_sub
                0x000000008080e200       0x90 common/built-in.o
 .text.usb_bulk_msg
                0x000000008080e290       0x46 common/built-in.o
                0x000000008080e290                usb_bulk_msg
 .text.usb_maxpacket
                0x000000008080e2d6       0x14 common/built-in.o
                0x000000008080e2d6                usb_maxpacket
 .text.usb_clear_halt
                0x000000008080e2ea       0x5c common/built-in.o
                0x000000008080e2ea                usb_clear_halt
 *fill*         0x000000008080e346        0x2 
 .text.usb_get_configuration_len
                0x000000008080e348       0x50 common/built-in.o
                0x000000008080e348                usb_get_configuration_len
 .text.usb_get_configuration_no
                0x000000008080e398       0x1c common/built-in.o
                0x000000008080e398                usb_get_configuration_no
 .text.usb_set_interface
                0x000000008080e3b4       0x7c common/built-in.o
                0x000000008080e3b4                usb_set_interface
 .text.usb_string
                0x000000008080e430       0x9c common/built-in.o
                0x000000008080e430                usb_string
 .text.usb_get_dev_index
                0x000000008080e4cc       0x18 common/built-in.o
                0x000000008080e4cc                usb_get_dev_index
 .text.usb_alloc_new_device
                0x000000008080e4e4       0x68 common/built-in.o
                0x000000008080e4e4                usb_alloc_new_device
 .text.usb_free_device
                0x000000008080e54c       0x30 common/built-in.o
                0x000000008080e54c                usb_free_device
 .text.usb_alloc_device
                0x000000008080e57c        0x4 common/built-in.o
                0x000000008080e57c                usb_alloc_device
 .text.usb_select_config
                0x000000008080e580      0x30c common/built-in.o
                0x000000008080e580                usb_select_config
 .text.usb_setup_device
                0x000000008080e88c       0xf4 common/built-in.o
                0x000000008080e88c                usb_setup_device
 .text.usb_new_device
                0x000000008080e980       0x1e common/built-in.o
                0x000000008080e980                usb_new_device
 *fill*         0x000000008080e99e        0x2 
 .text.usb_init
                0x000000008080e9a0       0xdc common/built-in.o
                0x000000008080e9a0                usb_init
 .text.board_usb_init
                0x000000008080ea7c        0x4 common/built-in.o
                0x000000008080ea7c                board_usb_init
 .text.board_usb_cleanup
                0x000000008080ea80        0x4 common/built-in.o
                0x000000008080ea80                board_usb_cleanup
 .text.usb_device_has_child_on_port
                0x000000008080ea84       0x10 common/built-in.o
                0x000000008080ea84                usb_device_has_child_on_port
 .text.usb_find_usb2_hub_address_port
                0x000000008080ea94       0x38 common/built-in.o
                0x000000008080ea94                usb_find_usb2_hub_address_port
 .text.usb_set_port_feature
                0x000000008080eacc       0x2e common/built-in.o
 .text.usb_clear_port_feature
                0x000000008080eafa       0x2e common/built-in.o
 .text.usb_get_hub_descriptor
                0x000000008080eb28       0x34 common/built-in.o
 .text.usb_hub_reset_devices
                0x000000008080eb5c        0x2 common/built-in.o
                0x000000008080eb5c                usb_hub_reset_devices
 .text.usb_get_port_status
                0x000000008080eb5e       0x30 common/built-in.o
                0x000000008080eb5e                usb_get_port_status
 *fill*         0x000000008080eb8e        0x2 
 .text.usb_hub_reset
                0x000000008080eb90       0x18 common/built-in.o
                0x000000008080eb90                usb_hub_reset
 .text.legacy_hub_port_reset
                0x000000008080eba8       0x6a common/built-in.o
                0x000000008080eba8                legacy_hub_port_reset
 *fill*         0x000000008080ec12        0x2 
 .text.usb_hub_port_connect_change
                0x000000008080ec14       0xfc common/built-in.o
                0x000000008080ec14                usb_hub_port_connect_change
 .text.usb_hub_configure
                0x000000008080ed10      0x338 common/built-in.o
 .text.usb_hub_probe
                0x000000008080f048       0x3a common/built-in.o
                0x000000008080f048                usb_hub_probe
 .text.usb_stor_irq
                0x000000008080f082       0x10 common/built-in.o
 .text.usb_stor_BBB_reset
                0x000000008080f092       0x8e common/built-in.o
 .text.usb_stor_CB_reset
                0x000000008080f120       0x84 common/built-in.o
 .text.usb_stor_BBB_clear_endpt_stall.isra.2
                0x000000008080f1a4       0x2c common/built-in.o
 .text.usb_stor_BBB_transport
                0x000000008080f1d0      0x1ac common/built-in.o
 .text.usb_stor_CB_comdat
                0x000000008080f37c      0x150 common/built-in.o
 .text.usb_stor_CBI_get_status.isra.4
                0x000000008080f4cc       0x80 common/built-in.o
 .text.usb_stor_CB_transport
                0x000000008080f54c      0x144 common/built-in.o
 .text.usb_request_sense.constprop.11
                0x000000008080f690       0x4c common/built-in.o
 .text.usb_stor_read
                0x000000008080f6dc       0xe8 common/built-in.o
 .text.usb_stor_write
                0x000000008080f7c4       0xe8 common/built-in.o
 .text.usb_stor_info
                0x000000008080f8ac       0x48 common/built-in.o
                0x000000008080f8ac                usb_stor_info
 .text.usb_storage_probe
                0x000000008080f8f4      0x158 common/built-in.o
                0x000000008080f8f4                usb_storage_probe
 .text.usb_stor_get_info
                0x000000008080fa4c      0x21c common/built-in.o
                0x000000008080fa4c                usb_stor_get_info
 .text.usb_stor_scan
                0x000000008080fc68      0x148 common/built-in.o
                0x000000008080fc68                usb_stor_scan
 .text.menu_display_statusline
                0x000000008080fdb0        0x2 common/built-in.o
                0x000000008080fdb0                menu_display_statusline
 .text.menu_default_set
                0x000000008080fdb2       0x4a common/built-in.o
                0x000000008080fdb2                menu_default_set
 .text.menu_get_choice
                0x000000008080fdfc      0x134 common/built-in.o
                0x000000008080fdfc                menu_get_choice
 .text.menu_item_add
                0x000000008080ff30       0x7c common/built-in.o
                0x000000008080ff30                menu_item_add
 .text.menu_create
                0x000000008080ffac       0x52 common/built-in.o
                0x000000008080ffac                menu_create
 .text.menu_destroy
                0x000000008080fffe       0x44 common/built-in.o
                0x000000008080fffe                menu_destroy
 *fill*         0x0000000080810042        0x2 
 .text.update_tftp
                0x0000000080810044      0x240 common/built-in.o
                0x0000000080810044                update_tftp
 .text.env_get_char_spec
                0x0000000080810284        0x8 common/built-in.o
                0x0000000080810284                env_get_char_spec
 .text.env_get_addr
                0x000000008081028c       0x18 common/built-in.o
                0x000000008081028c                env_get_addr
 .text.env_get_char_memory
                0x00000000808102a4        0xa common/built-in.o
                0x00000000808102a4                env_get_char_memory
 *fill*         0x00000000808102ae        0x2 
 .text.env_get_char
                0x00000000808102b0       0x20 common/built-in.o
                0x00000000808102b0                env_get_char
 .text.getenv_yesno
                0x00000000808102d0       0x2a common/built-in.o
                0x00000000808102d0                getenv_yesno
 .text.getenv_default
                0x00000000808102fa       0x2a common/built-in.o
                0x00000000808102fa                getenv_default
 .text.set_default_env
                0x0000000080810324       0x8c common/built-in.o
                0x0000000080810324                set_default_env
 .text.set_default_vars
                0x00000000808103b0       0x28 common/built-in.o
                0x00000000808103b0                set_default_vars
 .text.env_import
                0x00000000808103d8       0x94 common/built-in.o
                0x00000000808103d8                env_import
 .text.env_export
                0x000000008081046c       0x64 common/built-in.o
                0x000000008081046c                env_export
 .text.env_relocate
                0x00000000808104d0       0x28 common/built-in.o
                0x00000000808104d0                env_relocate
 .text.env_complete
                0x00000000808104f8       0x8c common/built-in.o
                0x00000000808104f8                env_complete
 .text.console_setfile
                0x0000000080810584       0x74 common/built-in.o
 .text.putc     0x00000000808105f8       0x24 common/built-in.o
                0x00000000808105f8                putc
 .text.puts     0x000000008081061c       0x24 common/built-in.o
                0x000000008081061c                puts
 .text.fgetc    0x0000000080810640       0x18 common/built-in.o
                0x0000000080810640                fgetc
 .text.getc     0x0000000080810658       0x1a common/built-in.o
                0x0000000080810658                getc
 *fill*         0x0000000080810672        0x2 
 .text.ftstc    0x0000000080810674       0x18 common/built-in.o
                0x0000000080810674                ftstc
 .text.tstc     0x000000008081068c       0x1a common/built-in.o
                0x000000008081068c                tstc
 *fill*         0x00000000808106a6        0x2 
 .text.ctrlc    0x00000000808106a8       0x34 common/built-in.o
                0x00000000808106a8                ctrlc
 .text.disable_ctrlc
                0x00000000808106dc       0x10 common/built-in.o
                0x00000000808106dc                disable_ctrlc
 .text.had_ctrlc
                0x00000000808106ec        0xc common/built-in.o
                0x00000000808106ec                had_ctrlc
 .text.clear_ctrlc
                0x00000000808106f8        0xc common/built-in.o
                0x00000000808106f8                clear_ctrlc
 .text.search_device
                0x0000000080810704       0x16 common/built-in.o
                0x0000000080810704                search_device
 .text.console_assign
                0x000000008081071a       0x2a common/built-in.o
                0x000000008081071a                console_assign
 .text.on_console
                0x0000000080810744       0x6c common/built-in.o
 .text.console_init_f
                0x00000000808107b0        0xa common/built-in.o
                0x00000000808107b0                console_init_f
 *fill*         0x00000000808107ba        0x2 
 .text.console_init_r
                0x00000000808107bc       0x8c common/built-in.o
                0x00000000808107bc                console_init_r
 .text.sbrk     0x0000000080810848       0x40 common/built-in.o
                0x0000000080810848                sbrk
 .text.mem_malloc_init
                0x0000000080810888       0x28 common/built-in.o
                0x0000000080810888                mem_malloc_init
 .text.malloc_trim
                0x00000000808108b0       0x84 common/built-in.o
                0x00000000808108b0                malloc_trim
 .text.free     0x0000000080810934      0x164 common/built-in.o
                0x0000000080810934                free
 .text.malloc   0x0000000080810a98      0x420 common/built-in.o
                0x0000000080810a98                malloc
 .text.calloc   0x0000000080810eb8       0xb8 common/built-in.o
                0x0000000080810eb8                calloc
 .text.realloc  0x0000000080810f70      0x2d0 common/built-in.o
                0x0000000080810f70                realloc
 .text.memalign
                0x0000000080811240      0x106 common/built-in.o
                0x0000000080811240                memalign
 .text.initf_malloc
                0x0000000080811346       0x14 common/built-in.o
                0x0000000080811346                initf_malloc
 .text.malloc_simple
                0x000000008081135a       0x28 common/built-in.o
                0x000000008081135a                malloc_simple
 *fill*         0x0000000080811382        0x2 
 .text.on_loadaddr
                0x0000000080811384       0x20 common/built-in.o
 .text.image_check_hcrc
                0x00000000808113a4       0x2a common/built-in.o
                0x00000000808113a4                image_check_hcrc
 .text.image_check_dcrc
                0x00000000808113ce       0x22 common/built-in.o
                0x00000000808113ce                image_check_dcrc
 .text.image_multi_count
                0x00000000808113f0       0x12 common/built-in.o
                0x00000000808113f0                image_multi_count
 .text.image_multi_getimg
                0x0000000080811402       0x4a common/built-in.o
                0x0000000080811402                image_multi_getimg
 .text.getenv_bootm_low
                0x000000008081144c       0x20 common/built-in.o
                0x000000008081144c                getenv_bootm_low
 .text.getenv_bootm_size
                0x000000008081146c       0x44 common/built-in.o
                0x000000008081146c                getenv_bootm_size
 .text.getenv_bootm_mapsize
                0x00000000808114b0       0x20 common/built-in.o
                0x00000000808114b0                getenv_bootm_mapsize
 .text.memmove_wd
                0x00000000808114d0       0x4c common/built-in.o
                0x00000000808114d0                memmove_wd
 .text.genimg_print_size
                0x000000008081151c       0x24 common/built-in.o
                0x000000008081151c                genimg_print_size
 .text.genimg_print_time
                0x0000000080811540       0x2c common/built-in.o
                0x0000000080811540                genimg_print_time
 .text.get_table_entry
                0x000000008081156c       0x12 common/built-in.o
                0x000000008081156c                get_table_entry
 .text.get_table_entry_name
                0x000000008081157e       0x12 common/built-in.o
                0x000000008081157e                get_table_entry_name
 .text.genimg_get_os_name
                0x0000000080811590       0x14 common/built-in.o
                0x0000000080811590                genimg_get_os_name
 .text.genimg_get_arch_name
                0x00000000808115a4       0x14 common/built-in.o
                0x00000000808115a4                genimg_get_arch_name
 .text.genimg_get_type_name
                0x00000000808115b8       0x14 common/built-in.o
                0x00000000808115b8                genimg_get_type_name
 .text.genimg_get_comp_name
                0x00000000808115cc       0x14 common/built-in.o
                0x00000000808115cc                genimg_get_comp_name
 .text.image_print_contents
                0x00000000808115e0      0x128 common/built-in.o
                0x00000000808115e0                image_print_contents
 .text.get_table_entry_id
                0x0000000080811708       0x26 common/built-in.o
                0x0000000080811708                get_table_entry_id
 *fill*         0x000000008081172e        0x2 
 .text.genimg_get_os_id
                0x0000000080811730       0x14 common/built-in.o
                0x0000000080811730                genimg_get_os_id
 .text.genimg_get_arch_id
                0x0000000080811744       0x14 common/built-in.o
                0x0000000080811744                genimg_get_arch_id
 .text.genimg_get_type_id
                0x0000000080811758       0x14 common/built-in.o
                0x0000000080811758                genimg_get_type_id
 .text.genimg_get_comp_id
                0x000000008081176c       0x14 common/built-in.o
                0x000000008081176c                genimg_get_comp_id
 .text.genimg_get_kernel_addr_fit
                0x0000000080811780       0x3c common/built-in.o
                0x0000000080811780                genimg_get_kernel_addr_fit
 .text.genimg_get_kernel_addr
                0x00000000808117bc       0x16 common/built-in.o
                0x00000000808117bc                genimg_get_kernel_addr
 *fill*         0x00000000808117d2        0x2 
 .text.genimg_get_format
                0x00000000808117d4       0x30 common/built-in.o
                0x00000000808117d4                genimg_get_format
 .text.genimg_get_image
                0x0000000080811804        0x2 common/built-in.o
                0x0000000080811804                genimg_get_image
 .text.genimg_has_config
                0x0000000080811806        0xa common/built-in.o
                0x0000000080811806                genimg_has_config
 .text.boot_get_ramdisk
                0x0000000080811810      0x26c common/built-in.o
                0x0000000080811810                boot_get_ramdisk
 .text.boot_ramdisk_high
                0x0000000080811a7c       0xc4 common/built-in.o
                0x0000000080811a7c                boot_ramdisk_high
 .text.boot_get_setup
                0x0000000080811b40        0x4 common/built-in.o
                0x0000000080811b40                boot_get_setup
 .text.boot_get_loadable
                0x0000000080811b44       0xe4 common/built-in.o
                0x0000000080811b44                boot_get_loadable
 .text.image_setup_linux
                0x0000000080811c28       0x58 common/built-in.o
                0x0000000080811c28                image_setup_linux
 .text.android_image_get_kernel
                0x0000000080811c80       0xf8 common/built-in.o
                0x0000000080811c80                android_image_get_kernel
 .text.android_image_check_header
                0x0000000080811d78       0x10 common/built-in.o
                0x0000000080811d78                android_image_check_header
 .text.android_image_get_end
                0x0000000080811d88       0x2a common/built-in.o
                0x0000000080811d88                android_image_get_end
 *fill*         0x0000000080811db2        0x2 
 .text.android_image_get_kload
                0x0000000080811db4       0x14 common/built-in.o
                0x0000000080811db4                android_image_get_kload
 .text.android_image_get_ramdisk
                0x0000000080811dc8       0x44 common/built-in.o
                0x0000000080811dc8                android_image_get_ramdisk
 .text.android_print_contents
                0x0000000080811e0c       0xa0 common/built-in.o
                0x0000000080811e0c                android_print_contents
 .text.fdt_error
                0x0000000080811eac       0x24 common/built-in.o
 .text.boot_fdt_add_mem_rsv_regions
                0x0000000080811ed0       0x5c common/built-in.o
                0x0000000080811ed0                boot_fdt_add_mem_rsv_regions
 .text.boot_relocate_fdt
                0x0000000080811f2c      0x108 common/built-in.o
                0x0000000080811f2c                boot_relocate_fdt
 .text.boot_get_fdt
                0x0000000080812034      0x268 common/built-in.o
                0x0000000080812034                boot_get_fdt
 .text.ft_verify_fdt
                0x000000008081229c        0x4 common/built-in.o
                0x000000008081229c                ft_verify_fdt
 .text.image_setup_libfdt
                0x00000000808122a0       0xb0 common/built-in.o
                0x00000000808122a0                image_setup_libfdt
 .text.fit_image_get_address
                0x0000000080812350       0x3c common/built-in.o
 .text.fit_parse_conf
                0x000000008081238c       0x3a common/built-in.o
                0x000000008081238c                fit_parse_conf
 .text.fit_parse_subimage
                0x00000000808123c6       0x3a common/built-in.o
                0x00000000808123c6                fit_parse_subimage
 .text.fit_get_desc
                0x0000000080812400       0x20 common/built-in.o
                0x0000000080812400                fit_get_desc
 .text.fit_get_timestamp
                0x0000000080812420       0x30 common/built-in.o
                0x0000000080812420                fit_get_timestamp
 .text.fit_image_get_node
                0x0000000080812450       0x24 common/built-in.o
                0x0000000080812450                fit_image_get_node
 .text.fit_image_get_os
                0x0000000080812474       0x28 common/built-in.o
                0x0000000080812474                fit_image_get_os
 .text.fit_image_get_arch
                0x000000008081249c       0x28 common/built-in.o
                0x000000008081249c                fit_image_get_arch
 .text.fit_image_get_type
                0x00000000808124c4       0x28 common/built-in.o
                0x00000000808124c4                fit_image_get_type
 .text.fit_image_get_comp
                0x00000000808124ec       0x28 common/built-in.o
                0x00000000808124ec                fit_image_get_comp
 .text.fit_image_get_load
                0x0000000080812514        0xc common/built-in.o
                0x0000000080812514                fit_image_get_load
 .text.fit_image_get_entry
                0x0000000080812520        0xc common/built-in.o
                0x0000000080812520                fit_image_get_entry
 .text.fit_image_get_data
                0x000000008081252c       0x28 common/built-in.o
                0x000000008081252c                fit_image_get_data
 .text.fit_image_hash_get_algo
                0x0000000080812554       0x20 common/built-in.o
                0x0000000080812554                fit_image_hash_get_algo
 .text.fit_image_hash_get_value
                0x0000000080812574       0x28 common/built-in.o
                0x0000000080812574                fit_image_hash_get_value
 .text.fit_image_print_data
                0x000000008081259c      0x104 common/built-in.o
 .text.fit_image_print
                0x00000000808126a0      0x25c common/built-in.o
                0x00000000808126a0                fit_image_print
 .text.fit_get_end
                0x00000000808128fc        0x8 common/built-in.o
                0x00000000808128fc                fit_get_end
 .text.calculate_hash
                0x0000000080812904       0xa8 common/built-in.o
                0x0000000080812904                calculate_hash
 .text.fit_image_verify
                0x00000000808129ac      0x150 common/built-in.o
                0x00000000808129ac                fit_image_verify
 .text.fit_all_image_verify
                0x0000000080812afc       0xa0 common/built-in.o
                0x0000000080812afc                fit_all_image_verify
 .text.fit_image_check_os
                0x0000000080812b9c       0x20 common/built-in.o
                0x0000000080812b9c                fit_image_check_os
 .text.fit_image_check_arch
                0x0000000080812bbc       0x2c common/built-in.o
                0x0000000080812bbc                fit_image_check_arch
 .text.fit_image_check_type
                0x0000000080812be8       0x20 common/built-in.o
                0x0000000080812be8                fit_image_check_type
 .text.fit_image_check_comp
                0x0000000080812c08       0x20 common/built-in.o
                0x0000000080812c08                fit_image_check_comp
 .text.fit_check_format
                0x0000000080812c28       0x40 common/built-in.o
                0x0000000080812c28                fit_check_format
 .text.fit_conf_get_node
                0x0000000080812c68       0x40 common/built-in.o
                0x0000000080812c68                fit_conf_get_node
 .text.fit_conf_get_prop_node
                0x0000000080812ca8       0x1c common/built-in.o
                0x0000000080812ca8                fit_conf_get_prop_node
 .text.fit_conf_print
                0x0000000080812cc4      0x118 common/built-in.o
                0x0000000080812cc4                fit_conf_print
 .text.fit_print_contents
                0x0000000080812ddc      0x174 common/built-in.o
                0x0000000080812ddc                fit_print_contents
 .text.fit_get_node_from_config
                0x0000000080812f50       0x2a common/built-in.o
                0x0000000080812f50                fit_get_node_from_config
 *fill*         0x0000000080812f7a        0x2 
 .text.fit_image_load
                0x0000000080812f7c      0x3bc common/built-in.o
                0x0000000080812f7c                fit_image_load
 .text.boot_get_setup_fit
                0x0000000080813338       0x40 common/built-in.o
                0x0000000080813338                boot_get_setup_fit
 .text.get_ram_size
                0x0000000080813378       0x98 common/built-in.o
                0x0000000080813378                get_ram_size
 .text.get_effective_memsize
                0x0000000080813410        0x6 common/built-in.o
                0x0000000080813410                get_effective_memsize
 .text.stdio_serial_tstc
                0x0000000080813416        0x4 common/built-in.o
 .text.stdio_serial_getc
                0x000000008081341a        0x4 common/built-in.o
 .text.stdio_serial_puts
                0x000000008081341e        0x6 common/built-in.o
 .text.stdio_serial_putc
                0x0000000080813424        0x6 common/built-in.o
 *fill*         0x000000008081342a        0x2 
 .text.stdio_get_list
                0x000000008081342c        0x8 common/built-in.o
                0x000000008081342c                stdio_get_list
 .text.stdio_get_by_name
                0x0000000080813434       0x30 common/built-in.o
                0x0000000080813434                stdio_get_by_name
 .text.stdio_clone
                0x0000000080813464       0x22 common/built-in.o
                0x0000000080813464                stdio_clone
 *fill*         0x0000000080813486        0x2 
 .text.stdio_register_dev
                0x0000000080813488       0x34 common/built-in.o
                0x0000000080813488                stdio_register_dev
 .text.stdio_register
                0x00000000808134bc        0x6 common/built-in.o
                0x00000000808134bc                stdio_register
 *fill*         0x00000000808134c2        0x2 
 .text.stdio_init_tables
                0x00000000808134c4       0x14 common/built-in.o
                0x00000000808134c4                stdio_init_tables
 .text.stdio_add_devices
                0x00000000808134d8       0x54 common/built-in.o
                0x00000000808134d8                stdio_add_devices
 .text.cli_simple_process_macros
                0x000000008081352c      0x128 common/built-in.o
                0x000000008081352c                cli_simple_process_macros
 .text.run_command
                0x0000000080813654        0xe common/built-in.o
                0x0000000080813654                run_command
 .text.run_command_list
                0x0000000080813662       0x46 common/built-in.o
                0x0000000080813662                run_command_list
 .text.do_run   0x00000000808136a8       0x4c common/built-in.o
                0x00000000808136a8                do_run
 .text.cli_loop
                0x00000000808136f4        0x8 common/built-in.o
                0x00000000808136f4                cli_loop
 .text.cli_init
                0x00000000808136fc        0x4 common/built-in.o
                0x00000000808136fc                cli_init
 .text.delete_char.part.0
                0x0000000080813700       0x84 common/built-in.o
 .text.cread_add_char
                0x0000000080813784       0x80 common/built-in.o
 .text.cli_readline_into_buffer
                0x0000000080813804      0x65c common/built-in.o
                0x0000000080813804                cli_readline_into_buffer
 .text.cli_readline
                0x0000000080813e60       0x10 common/built-in.o
                0x0000000080813e60                cli_readline
 .text.run_usb_dnl_gadget
                0x0000000080813e70       0xdc common/built-in.o
                0x0000000080813e70                run_usb_dnl_gadget
 .text.find_cmd_tbl
                0x0000000080813f4c       0x62 common/built-in.o
                0x0000000080813f4c                find_cmd_tbl
 *fill*         0x0000000080813fae        0x2 
 .text.find_cmd
                0x0000000080813fb0       0x1c common/built-in.o
                0x0000000080813fb0                find_cmd
 .text.cmd_usage
                0x0000000080813fcc       0x3c common/built-in.o
                0x0000000080813fcc                cmd_usage
 .text._do_help
                0x0000000080814008      0x108 common/built-in.o
                0x0000000080814008                _do_help
 .text.var_complete
                0x0000000080814110       0x48 common/built-in.o
                0x0000000080814110                var_complete
 .text.cmd_auto_complete
                0x0000000080814158      0x2cc common/built-in.o
                0x0000000080814158                cmd_auto_complete
 .text.cmd_get_data_size
                0x0000000080814424       0x48 common/built-in.o
                0x0000000080814424                cmd_get_data_size
 .text.cmd_process
                0x000000008081446c       0x94 common/built-in.o
                0x000000008081446c                cmd_process
 .text.cmd_process_error
                0x0000000080814500       0x18 common/built-in.o
                0x0000000080814500                cmd_process_error
 .text.hex1_bin
                0x0000000080814518       0x2a common/built-in.o
 .text.hex2_bin
                0x0000000080814542       0x24 common/built-in.o
 .text.srec_decode
                0x0000000080814566      0x17c common/built-in.o
                0x0000000080814566                srec_decode
 .text.CYGACC_COMM_IF_GETC_TIMEOUT.isra.0
                0x00000000808146e2       0x2e common/built-in.o
 .text.xyzModem_flush
                0x0000000080814710       0x14 common/built-in.o
 .text.xyzModem_get_hdr
                0x0000000080814724      0x16c common/built-in.o
 .text.xyzModem_stream_open
                0x0000000080814890      0x168 common/built-in.o
                0x0000000080814890                xyzModem_stream_open
 .text.xyzModem_stream_read
                0x00000000808149f8      0x1a8 common/built-in.o
                0x00000000808149f8                xyzModem_stream_read
 .text.xyzModem_stream_close
                0x0000000080814ba0       0x40 common/built-in.o
                0x0000000080814ba0                xyzModem_stream_close
 .text.xyzModem_stream_terminate
                0x0000000080814be0       0x68 common/built-in.o
                0x0000000080814be0                xyzModem_stream_terminate
 .text.xyzModem_error
                0x0000000080814c48       0x18 common/built-in.o
                0x0000000080814c48                xyzModem_error
 .text.blk_get_dev
                0x0000000080814c60       0x18 disk/built-in.o
                0x0000000080814c60                blk_get_dev
 .text.dev_print
                0x0000000080814c78      0x170 disk/built-in.o
                0x0000000080814c78                dev_print
 .text.part_init
                0x0000000080814de8       0x2c disk/built-in.o
                0x0000000080814de8                part_init
 .text.part_print
                0x0000000080814e14       0xd8 disk/built-in.o
                0x0000000080814e14                part_print
 .text.part_get_info
                0x0000000080814eec       0x44 disk/built-in.o
                0x0000000080814eec                part_get_info
 .text.blk_get_device_by_str
                0x0000000080814f30       0xcc disk/built-in.o
                0x0000000080814f30                blk_get_device_by_str
 .text.blk_get_device_part_str
                0x0000000080814ffc      0x25c disk/built-in.o
                0x0000000080814ffc                blk_get_device_part_str
 .text.part_set_generic_name
                0x0000000080815258       0x34 disk/built-in.o
                0x0000000080815258                part_set_generic_name
 .text.test_block_type
                0x000000008081528c       0x4c disk/built-in.o
 .text.print_partition_extended
                0x00000000808152d8      0x188 disk/built-in.o
 .text.part_print_dos
                0x0000000080815460       0x20 disk/built-in.o
                0x0000000080815460                part_print_dos
 .text.part_test_dos
                0x0000000080815480       0x40 disk/built-in.o
 .text.part_get_info_extended
                0x00000000808154c0      0x1bc disk/built-in.o
 .text.part_get_info_dos
                0x000000008081567c       0x16 disk/built-in.o
                0x000000008081567c                part_get_info_dos
 .text.iso_dread
                0x0000000080815692       0x22 disk/built-in.o
                0x0000000080815692                iso_dread
 .text.part_get_info_iso_verb
                0x00000000808156b4      0x28c disk/built-in.o
                0x00000000808156b4                part_get_info_iso_verb
 .text.part_test_iso
                0x0000000080815940       0x14 disk/built-in.o
 .text.part_print_iso
                0x0000000080815954       0x60 disk/built-in.o
 .text.part_get_info_iso
                0x00000000808159b4        0x6 disk/built-in.o
 *fill*         0x00000000808159ba        0x2 
 .text.print_efiname
                0x00000000808159bc       0x3c disk/built-in.o
 .text.part_test_efi
                0x00000000808159f8       0x78 disk/built-in.o
 .text.set_protective_mbr
                0x0000000080815a70       0x7c disk/built-in.o
 .text.validate_gpt_entries
                0x0000000080815aec       0x80 disk/built-in.o
 *fill*         0x0000000080815b6c        0x4 
 .text.validate_gpt_header
                0x0000000080815b70      0x1a0 disk/built-in.o
 .text.is_gpt_valid
                0x0000000080815d10      0x13c disk/built-in.o
 .text.is_pte_valid
                0x0000000080815e4c       0x38 disk/built-in.o
 .text.part_print_efi
                0x0000000080815e84      0x1f8 disk/built-in.o
                0x0000000080815e84                part_print_efi
 .text.part_get_info_efi
                0x000000008081607c      0x174 disk/built-in.o
                0x000000008081607c                part_get_info_efi
 .text.write_gpt_table
                0x00000000808161f0      0x2b4 disk/built-in.o
                0x00000000808161f0                write_gpt_table
 .text.gpt_fill_pte
                0x00000000808164a4      0x22c disk/built-in.o
                0x00000000808164a4                gpt_fill_pte
 .text.gpt_fill_header
                0x00000000808166d0      0x142 disk/built-in.o
                0x00000000808166d0                gpt_fill_header
 *fill*         0x0000000080816812        0x2 
 .text.gpt_restore
                0x0000000080816814       0xa4 disk/built-in.o
                0x0000000080816814                gpt_restore
 .text.gpt_verify_headers
                0x00000000808168b8       0x54 disk/built-in.o
                0x00000000808168b8                gpt_verify_headers
 .text.gpt_verify_partitions
                0x000000008081690c      0x1c0 disk/built-in.o
                0x000000008081690c                gpt_verify_partitions
 .text.device_bind_common.isra.0
                0x0000000080816acc      0x1e8 drivers/built-in.o
 .text.alloc_priv
                0x0000000080816cb4       0x2c drivers/built-in.o
 .text.device_bind_by_name
                0x0000000080816ce0       0x44 drivers/built-in.o
                0x0000000080816ce0                device_bind_by_name
 .text.device_probe
                0x0000000080816d24      0x13c drivers/built-in.o
                0x0000000080816d24                device_probe
 .text.dev_get_platdata
                0x0000000080816e60       0x20 drivers/built-in.o
                0x0000000080816e60                dev_get_platdata
 .text.dev_get_priv
                0x0000000080816e80       0x20 drivers/built-in.o
                0x0000000080816e80                dev_get_priv
 .text.dev_get_uclass_priv
                0x0000000080816ea0       0x20 drivers/built-in.o
                0x0000000080816ea0                dev_get_uclass_priv
 .text.dev_get_addr
                0x0000000080816ec0        0x6 drivers/built-in.o
                0x0000000080816ec0                dev_get_addr
 *fill*         0x0000000080816ec6        0x2 
 .text.lists_driver_lookup_name
                0x0000000080816ec8       0x2c drivers/built-in.o
                0x0000000080816ec8                lists_driver_lookup_name
 .text.lists_uclass_lookup
                0x0000000080816ef4       0x20 drivers/built-in.o
                0x0000000080816ef4                lists_uclass_lookup
 .text.lists_bind_drivers
                0x0000000080816f14       0x58 drivers/built-in.o
                0x0000000080816f14                lists_bind_drivers
 .text.dm_root  0x0000000080816f6c       0x1c drivers/built-in.o
                0x0000000080816f6c                dm_root
 .text.dm_init  0x0000000080816f88       0x44 drivers/built-in.o
                0x0000000080816f88                dm_init
 .text.dm_scan_platdata
                0x0000000080816fcc       0x20 drivers/built-in.o
                0x0000000080816fcc                dm_scan_platdata
 .text.dm_scan_other
                0x0000000080816fec        0x4 drivers/built-in.o
                0x0000000080816fec                dm_scan_other
 .text.dm_init_and_scan
                0x0000000080816ff0       0x1e drivers/built-in.o
                0x0000000080816ff0                dm_init_and_scan
 .text.uclass_find
                0x000000008081700e       0x2e drivers/built-in.o
                0x000000008081700e                uclass_find
 .text.uclass_get
                0x000000008081703c       0xa8 drivers/built-in.o
                0x000000008081703c                uclass_get
 .text.uclass_find_device
                0x00000000808170e4       0x42 drivers/built-in.o
                0x00000000808170e4                uclass_find_device
 .text.uclass_find_first_device
                0x0000000080817126       0x22 drivers/built-in.o
                0x0000000080817126                uclass_find_first_device
 .text.uclass_find_next_device
                0x0000000080817148       0x18 drivers/built-in.o
                0x0000000080817148                uclass_find_next_device
 .text.uclass_find_device_by_seq
                0x0000000080817160       0x54 drivers/built-in.o
                0x0000000080817160                uclass_find_device_by_seq
 .text.uclass_get_device_tail
                0x00000000808171b4       0x16 drivers/built-in.o
                0x00000000808171b4                uclass_get_device_tail
 .text.uclass_get_device
                0x00000000808171ca       0x1c drivers/built-in.o
                0x00000000808171ca                uclass_get_device
 .text.uclass_get_device_by_seq
                0x00000000808171e6       0x32 drivers/built-in.o
                0x00000000808171e6                uclass_get_device_by_seq
 .text.uclass_first_device
                0x0000000080817218       0x1e drivers/built-in.o
                0x0000000080817218                uclass_first_device
 .text.uclass_next_device
                0x0000000080817236       0x22 drivers/built-in.o
                0x0000000080817236                uclass_next_device
 .text.uclass_bind_device
                0x0000000080817258       0x3a drivers/built-in.o
                0x0000000080817258                uclass_bind_device
 .text.uclass_unbind_device
                0x0000000080817292       0x24 drivers/built-in.o
                0x0000000080817292                uclass_unbind_device
 *fill*         0x00000000808172b6        0x2 
 .text.uclass_resolve_seq
                0x00000000808172b8       0x68 drivers/built-in.o
                0x00000000808172b8                uclass_resolve_seq
 .text.uclass_pre_probe_device
                0x0000000080817320       0x2e drivers/built-in.o
                0x0000000080817320                uclass_pre_probe_device
 .text.uclass_post_probe_device
                0x000000008081734e        0xe drivers/built-in.o
                0x000000008081734e                uclass_post_probe_device
 .text.uclass_pre_remove_device
                0x000000008081735c        0xe drivers/built-in.o
                0x000000008081735c                uclass_pre_remove_device
 .text.dm_warn  0x000000008081736a       0x1a drivers/built-in.o
                0x000000008081736a                dm_warn
 .text.device_free
                0x0000000080817384       0x44 drivers/built-in.o
                0x0000000080817384                device_free
 .text.device_remove
                0x00000000808173c8       0xc0 drivers/built-in.o
                0x00000000808173c8                device_remove
 .text.show_devices
                0x0000000080817488       0xb4 drivers/built-in.o
 .text.dm_dump_all
                0x000000008081753c       0x30 drivers/built-in.o
                0x000000008081753c                dm_dump_all
 .text.dm_dump_uclass
                0x000000008081756c       0x98 drivers/built-in.o
                0x000000008081756c                dm_dump_uclass
 .text.get_desc
                0x0000000080817604       0x3a drivers/built-in.o
 *fill*         0x000000008081763e        0x2 
 .text.blk_driver_lookup_type
                0x0000000080817640       0x20 drivers/built-in.o
                0x0000000080817640                blk_driver_lookup_type
 .text.blk_get_devnum_by_type
                0x0000000080817660       0x20 drivers/built-in.o
                0x0000000080817660                blk_get_devnum_by_type
 .text.blk_dselect_hwpart
                0x0000000080817680       0x26 drivers/built-in.o
                0x0000000080817680                blk_dselect_hwpart
 *fill*         0x00000000808176a6        0x2 
 .text.blk_get_devnum_by_typename
                0x00000000808176a8       0x3c drivers/built-in.o
                0x00000000808176a8                blk_get_devnum_by_typename
 .text.blk_select_hwpart_devnum
                0x00000000808176e4       0x2a drivers/built-in.o
                0x00000000808176e4                blk_select_hwpart_devnum
 *fill*         0x000000008081770e        0x2 
 .text.bootcount_store
                0x0000000080817710       0x50 drivers/built-in.o
                0x0000000080817724                bootcount_store
 .text.bootcount_load
                0x0000000080817760       0x40 drivers/built-in.o
                0x0000000080817780                bootcount_load
 .text.dfu_write_buffer_drain
                0x00000000808177a0       0x6c drivers/built-in.o
 .text.dfu_usb_get_reset
                0x000000008081780c        0x4 drivers/built-in.o
                0x000000008081780c                dfu_usb_get_reset
 .text.dfu_free_buf
                0x0000000080817810       0x14 drivers/built-in.o
                0x0000000080817810                dfu_free_buf
 .text.dfu_get_buf_size
                0x0000000080817824        0xc drivers/built-in.o
                0x0000000080817824                dfu_get_buf_size
 .text.dfu_get_buf
                0x0000000080817830       0x68 drivers/built-in.o
                0x0000000080817830                dfu_get_buf
 .text.dfu_write_transaction_cleanup
                0x0000000080817898       0x30 drivers/built-in.o
                0x0000000080817898                dfu_write_transaction_cleanup
 .text.dfu_flush
                0x00000000808178c8       0x38 drivers/built-in.o
                0x00000000808178c8                dfu_flush
 .text.dfu_write
                0x0000000080817900      0x114 drivers/built-in.o
                0x0000000080817900                dfu_write
 .text.dfu_read
                0x0000000080817a14      0x1c8 drivers/built-in.o
                0x0000000080817a14                dfu_read
 .text.dfu_free_entities
                0x0000000080817bdc       0x58 drivers/built-in.o
                0x0000000080817bdc                dfu_free_entities
 .text.dfu_config_entities
                0x0000000080817c34      0x198 drivers/built-in.o
                0x0000000080817c34                dfu_config_entities
 .text.dfu_init_env_entities
                0x0000000080817dcc       0x60 drivers/built-in.o
                0x0000000080817dcc                dfu_init_env_entities
 .text.dfu_get_dev_type
                0x0000000080817e2c       0x28 drivers/built-in.o
                0x0000000080817e2c                dfu_get_dev_type
 .text.dfu_get_layout
                0x0000000080817e54       0x28 drivers/built-in.o
                0x0000000080817e54                dfu_get_layout
 .text.dfu_show_entities
                0x0000000080817e7c       0x4c drivers/built-in.o
                0x0000000080817e7c                dfu_show_entities
 .text.dfu_get_alt_number
                0x0000000080817ec8        0xc drivers/built-in.o
                0x0000000080817ec8                dfu_get_alt_number
 .text.dfu_get_entity
                0x0000000080817ed4       0x28 drivers/built-in.o
                0x0000000080817ed4                dfu_get_entity
 .text.dfu_get_alt
                0x0000000080817efc       0x64 drivers/built-in.o
                0x0000000080817efc                dfu_get_alt
 .text.dfu_write_from_mem_addr
                0x0000000080817f60       0x80 drivers/built-in.o
                0x0000000080817f60                dfu_write_from_mem_addr
 .text.mmc_block_op
                0x0000000080817fe0      0x128 drivers/built-in.o
 .text.mmc_file_op
                0x0000000080818108       0xf0 drivers/built-in.o
 .text.dfu_free_entity_mmc
                0x00000000808181f8       0x18 drivers/built-in.o
                0x00000000808181f8                dfu_free_entity_mmc
 .text.dfu_write_medium_mmc
                0x0000000080818210       0x74 drivers/built-in.o
                0x0000000080818210                dfu_write_medium_mmc
 .text.dfu_flush_medium_mmc
                0x0000000080818284       0x2c drivers/built-in.o
                0x0000000080818284                dfu_flush_medium_mmc
 .text.dfu_get_medium_size_mmc
                0x00000000808182b0       0x64 drivers/built-in.o
                0x00000000808182b0                dfu_get_medium_size_mmc
 .text.dfu_read_medium_mmc
                0x0000000080818314       0x9c drivers/built-in.o
                0x0000000080818314                dfu_read_medium_mmc
 .text.dfu_fill_entity_mmc
                0x00000000808183b0      0x200 drivers/built-in.o
                0x00000000808183b0                dfu_fill_entity_mmc
 .text.dfu_get_medium_size_ram
                0x00000000808185b0        0x4 drivers/built-in.o
                0x00000000808185b0                dfu_get_medium_size_ram
 .text.dfu_read_medium_ram
                0x00000000808185b4       0x68 drivers/built-in.o
 .text.dfu_write_medium_ram
                0x000000008081861c       0x68 drivers/built-in.o
 .text.dfu_fill_entity_ram
                0x0000000080818684       0xb4 drivers/built-in.o
                0x0000000080818684                dfu_fill_entity_ram
 .text.dfu_tftp_write
                0x0000000080818738       0x98 drivers/built-in.o
                0x0000000080818738                dfu_tftp_write
 .text.rtc_calc_weekday
                0x00000000808187d0       0x98 drivers/built-in.o
                0x00000000808187d0                rtc_calc_weekday
 .text.rtc_to_tm
                0x0000000080818868       0xa0 drivers/built-in.o
                0x0000000080818868                rtc_to_tm
 .text.hw_watchdog_reset
                0x0000000080818908       0x30 drivers/built-in.o
                0x0000000080818908                hw_watchdog_reset
 .text.hw_watchdog_init
                0x0000000080818938       0x70 drivers/built-in.o
                0x0000000080818938                hw_watchdog_init
 .text.gpio_to_device
                0x00000000808189a8       0x48 drivers/gpio/built-in.o
 .text.check_reserved
                0x00000000808189f0       0x4c drivers/gpio/built-in.o
 .text.gpio_renumber
                0x0000000080818a3c       0x46 drivers/gpio/built-in.o
 .text.gpio_pre_remove
                0x0000000080818a82       0x30 drivers/gpio/built-in.o
 .text.gpio_post_probe
                0x0000000080818ab2       0x24 drivers/gpio/built-in.o
 *fill*         0x0000000080818ad6        0x2 
 .text.dm_gpio_lookup_name
                0x0000000080818ad8       0xa0 drivers/gpio/built-in.o
                0x0000000080818ad8                dm_gpio_lookup_name
 .text.gpio_lookup_name
                0x0000000080818b78       0x3c drivers/gpio/built-in.o
                0x0000000080818b78                gpio_lookup_name
 .text.dm_gpio_request
                0x0000000080818bb4       0x5e drivers/gpio/built-in.o
                0x0000000080818bb4                dm_gpio_request
 .text.gpio_request
                0x0000000080818c12       0x18 drivers/gpio/built-in.o
                0x0000000080818c12                gpio_request
 .text._dm_gpio_free
                0x0000000080818c2a       0x42 drivers/gpio/built-in.o
                0x0000000080818c2a                _dm_gpio_free
 .text.gpio_free
                0x0000000080818c6c       0x18 drivers/gpio/built-in.o
                0x0000000080818c6c                gpio_free
 .text.gpio_direction_input
                0x0000000080818c84       0x2c drivers/gpio/built-in.o
                0x0000000080818c84                gpio_direction_input
 .text.gpio_direction_output
                0x0000000080818cb0       0x2c drivers/gpio/built-in.o
                0x0000000080818cb0                gpio_direction_output
 .text.dm_gpio_get_value
                0x0000000080818cdc       0x2c drivers/gpio/built-in.o
                0x0000000080818cdc                dm_gpio_get_value
 .text.dm_gpio_set_value
                0x0000000080818d08       0x34 drivers/gpio/built-in.o
                0x0000000080818d08                dm_gpio_set_value
 .text.gpio_get_value
                0x0000000080818d3c       0x16 drivers/gpio/built-in.o
                0x0000000080818d3c                gpio_get_value
 .text.gpio_set_value
                0x0000000080818d52       0x18 drivers/gpio/built-in.o
                0x0000000080818d52                gpio_set_value
 .text.gpio_get_bank_info
                0x0000000080818d6a       0x10 drivers/gpio/built-in.o
                0x0000000080818d6a                gpio_get_bank_info
 .text.get_function
                0x0000000080818d7a       0x5e drivers/gpio/built-in.o
                0x0000000080818d7a                get_function
 .text.gpio_get_function
                0x0000000080818dd8        0x8 drivers/gpio/built-in.o
                0x0000000080818dd8                gpio_get_function
 .text.gpio_get_raw_function
                0x0000000080818de0        0x8 drivers/gpio/built-in.o
                0x0000000080818de0                gpio_get_raw_function
 .text.gpio_get_status
                0x0000000080818de8       0xb4 drivers/gpio/built-in.o
                0x0000000080818de8                gpio_get_status
 .text.omap_gpio_direction_input
                0x0000000080818e9c       0x1c drivers/gpio/built-in.o
 .text.omap_gpio_probe
                0x0000000080818eb8       0x28 drivers/gpio/built-in.o
 .text.omap_gpio_direction_output
                0x0000000080818ee0       0x30 drivers/gpio/built-in.o
 .text.omap_gpio_get_value
                0x0000000080818f10       0x2c drivers/gpio/built-in.o
 .text.omap_gpio_bind
                0x0000000080818f3c       0x40 drivers/gpio/built-in.o
 .text.omap_gpio_get_function
                0x0000000080818f7c       0x1c drivers/gpio/built-in.o
 .text.omap_gpio_set_value
                0x0000000080818f98       0x22 drivers/gpio/built-in.o
 *fill*         0x0000000080818fba        0x2 
 .text.i2c_get_adapter
                0x0000000080818fbc       0x40 drivers/i2c/built-in.o
                0x0000000080818fbc                i2c_get_adapter
 .text.i2c_init_bus
                0x0000000080818ffc       0x64 drivers/i2c/built-in.o
 .text.i2c_get_bus_num
                0x0000000080819060        0x6 drivers/i2c/built-in.o
                0x0000000080819060                i2c_get_bus_num
 *fill*         0x0000000080819066        0x2 
 .text.i2c_set_bus_num
                0x0000000080819068       0x80 drivers/i2c/built-in.o
                0x0000000080819068                i2c_set_bus_num
 .text.i2c_init_all
                0x00000000808190e8       0x10 drivers/i2c/built-in.o
                0x00000000808190e8                i2c_init_all
 .text.i2c_probe
                0x00000000808190f8       0x20 drivers/i2c/built-in.o
                0x00000000808190f8                i2c_probe
 .text.i2c_read
                0x0000000080819118       0x34 drivers/i2c/built-in.o
                0x0000000080819118                i2c_read
 .text.i2c_write
                0x000000008081914c       0x34 drivers/i2c/built-in.o
                0x000000008081914c                i2c_write
 .text.i2c_set_bus_speed
                0x0000000080819180       0x44 drivers/i2c/built-in.o
                0x0000000080819180                i2c_set_bus_speed
 .text.i2c_get_bus_speed
                0x00000000808191c4        0xe drivers/i2c/built-in.o
                0x00000000808191c4                i2c_get_bus_speed
 .text.i2c_init
                0x00000000808191d2        0xe drivers/i2c/built-in.o
                0x00000000808191d2                i2c_init
 .text.__omap24_i2c_setspeed
                0x00000000808191e0       0xc4 drivers/i2c/built-in.o
 .text.wait_for_bb
                0x00000000808192a4       0x58 drivers/i2c/built-in.o
 .text.wait_for_event
                0x00000000808192fc       0x50 drivers/i2c/built-in.o
 .text.flush_fifo
                0x000000008081934c       0x2a drivers/i2c/built-in.o
 *fill*         0x0000000080819376        0x2 
 .text.omap24_get_base.isra.0
                0x0000000080819378       0x24 drivers/i2c/built-in.o
 .text.omap24_i2c_setspeed
                0x000000008081939c       0x40 drivers/i2c/built-in.o
 .text.omap24_i2c_write
                0x00000000808193dc      0x188 drivers/i2c/built-in.o
 .text.omap24_i2c_read
                0x0000000080819564      0x174 drivers/i2c/built-in.o
 .text.omap24_i2c_probe
                0x00000000808196d8       0xa8 drivers/i2c/built-in.o
 .text.omap24_i2c_init
                0x0000000080819780      0x21c drivers/i2c/built-in.o
 .text.find_mmc_device
                0x000000008081999c       0x30 drivers/mmc/built-in.o
                0x000000008081999c                find_mmc_device
 .text.mmc_select_hwpartp
                0x00000000808199cc       0x36 drivers/mmc/built-in.o
 .text.mmc_get_dev
                0x0000000080819a02       0x1e drivers/mmc/built-in.o
 .text.mmc_get_next_devnum
                0x0000000080819a20       0x10 drivers/mmc/built-in.o
                0x0000000080819a20                mmc_get_next_devnum
 .text.mmc_get_blk_desc
                0x0000000080819a30        0x4 drivers/mmc/built-in.o
                0x0000000080819a30                mmc_get_blk_desc
 .text.get_mmc_num
                0x0000000080819a34        0xc drivers/mmc/built-in.o
                0x0000000080819a34                get_mmc_num
 .text.mmc_do_preinit
                0x0000000080819a40       0x20 drivers/mmc/built-in.o
                0x0000000080819a40                mmc_do_preinit
 .text.mmc_list_init
                0x0000000080819a60       0x18 drivers/mmc/built-in.o
                0x0000000080819a60                mmc_list_init
 .text.mmc_list_add
                0x0000000080819a78       0x14 drivers/mmc/built-in.o
                0x0000000080819a78                mmc_list_add
 .text.print_mmc_devices
                0x0000000080819a8c       0x84 drivers/mmc/built-in.o
                0x0000000080819a8c                print_mmc_devices
 .text.mmc_create
                0x0000000080819b10       0x84 drivers/mmc/built-in.o
                0x0000000080819b10                mmc_create
 .text.mmc_set_ios
                0x0000000080819b94        0xc drivers/mmc/built-in.o
 .text.mmc_set_capacity
                0x0000000080819ba0       0x6c drivers/mmc/built-in.o
 .text.board_mmc_getwp
                0x0000000080819c0c        0x6 drivers/mmc/built-in.o
                0x0000000080819c0c                board_mmc_getwp
 .text.mmc_getwp
                0x0000000080819c12       0x20 drivers/mmc/built-in.o
                0x0000000080819c12                mmc_getwp
 .text.board_mmc_getcd
                0x0000000080819c32        0x6 drivers/mmc/built-in.o
                0x0000000080819c32                board_mmc_getcd
 .text.mmc_send_cmd
                0x0000000080819c38        0x8 drivers/mmc/built-in.o
                0x0000000080819c38                mmc_send_cmd
 .text.mmc_send_ext_csd
                0x0000000080819c40       0x2e drivers/mmc/built-in.o
 .text.mmc_go_idle
                0x0000000080819c6e       0x32 drivers/mmc/built-in.o
 .text.mmc_send_op_cond_iter
                0x0000000080819ca0       0x44 drivers/mmc/built-in.o
 .text.mmc_send_status
                0x0000000080819ce4       0x90 drivers/mmc/built-in.o
                0x0000000080819ce4                mmc_send_status
 .text.mmc_set_blocklen
                0x0000000080819d74       0x26 drivers/mmc/built-in.o
                0x0000000080819d74                mmc_set_blocklen
 *fill*         0x0000000080819d9a        0x2 
 .text.mmc_bread
                0x0000000080819d9c       0xdc drivers/mmc/built-in.o
                0x0000000080819d9c                mmc_bread
 .text.mmc_switch
                0x0000000080819e78       0x3e drivers/mmc/built-in.o
                0x0000000080819e78                mmc_switch
 .text.mmc_switch_part
                0x0000000080819eb6       0x40 drivers/mmc/built-in.o
                0x0000000080819eb6                mmc_switch_part
 *fill*         0x0000000080819ef6        0x2 
 .text.mmc_hwpart_config
                0x0000000080819ef8      0x2e0 drivers/mmc/built-in.o
                0x0000000080819ef8                mmc_hwpart_config
 .text.mmc_getcd
                0x000000008081a1d8       0x20 drivers/mmc/built-in.o
                0x000000008081a1d8                mmc_getcd
 .text.mmc_set_clock
                0x000000008081a1f8       0x1c drivers/mmc/built-in.o
                0x000000008081a1f8                mmc_set_clock
 .text.mmc_startup
                0x000000008081a214      0x96c drivers/mmc/built-in.o
 .text.board_mmc_power_init
                0x000000008081ab80        0x2 drivers/mmc/built-in.o
                0x000000008081ab80                board_mmc_power_init
 *fill*         0x000000008081ab82        0x2 
 .text.mmc_start_init
                0x000000008081ab84      0x18c drivers/mmc/built-in.o
                0x000000008081ab84                mmc_start_init
 .text.mmc_init
                0x000000008081ad10       0x9c drivers/mmc/built-in.o
                0x000000008081ad10                mmc_init
 .text.mmc_set_dsr
                0x000000008081adac        0x6 drivers/mmc/built-in.o
                0x000000008081adac                mmc_set_dsr
 .text.board_mmc_init
                0x000000008081adb2        0x6 drivers/mmc/built-in.o
                0x000000008081adb2                board_mmc_init
 .text.mmc_initialize
                0x000000008081adb8       0x34 drivers/mmc/built-in.o
                0x000000008081adb8                mmc_initialize
 .text.omap_hsmmc_set_ios
                0x000000008081adec      0x110 drivers/mmc/built-in.o
 .text.mmc_reset_controller_fsm
                0x000000008081aefc       0x7c drivers/mmc/built-in.o
 .text.omap_hsmmc_getwp
                0x000000008081af78       0x10 drivers/mmc/built-in.o
 .text.omap_hsmmc_getcd
                0x000000008081af88       0x1a drivers/mmc/built-in.o
 *fill*         0x000000008081afa2        0x2 
 .text.omap_hsmmc_send_cmd
                0x000000008081afa4      0x338 drivers/mmc/built-in.o
 .text.mmc_init_stream
                0x000000008081b2dc       0xa4 drivers/mmc/built-in.o
                0x000000008081b2dc                mmc_init_stream
 .text.omap_hsmmc_init_setup
                0x000000008081b380      0x164 drivers/mmc/built-in.o
 .text.omap_mmc_init
                0x000000008081b4e4       0xe4 drivers/mmc/built-in.o
                0x000000008081b4e4                omap_mmc_init
 .text.mmc_berase
                0x000000008081b5c8      0x114 drivers/mmc/built-in.o
                0x000000008081b5c8                mmc_berase
 .text.mmc_bwrite
                0x000000008081b6dc      0x100 drivers/mmc/built-in.o
                0x000000008081b6dc                mmc_bwrite
 .text.mtd_arg_off
                0x000000008081b7dc       0x50 drivers/mtd/built-in.o
                0x000000008081b7dc                mtd_arg_off
 .text.mtd_arg_off_size
                0x000000008081b82c       0xc0 drivers/mtd/built-in.o
                0x000000008081b82c                mtd_arg_off_size
 .text.spi_flash_probe
                0x000000008081b8ec       0x4a drivers/mtd/spi/built-in.o
                0x000000008081b8ec                spi_flash_probe
 .text.spi_flash_free
                0x000000008081b936       0x14 drivers/mtd/spi/built-in.o
                0x000000008081b936                spi_flash_free
 .text.spi_flash_read_common
                0x000000008081b94a       0x38 drivers/mtd/spi/built-in.o
                0x000000008081b94a                spi_flash_read_common
 *fill*         0x000000008081b982        0x2 
 .text.spi_flash_write_common
                0x000000008081b984       0xe8 drivers/mtd/spi/built-in.o
                0x000000008081b984                spi_flash_write_common
 .text.spi_flash_cmd_erase_ops
                0x000000008081ba6c       0x84 drivers/mtd/spi/built-in.o
                0x000000008081ba6c                spi_flash_cmd_erase_ops
 .text.spi_flash_cmd_write_ops
                0x000000008081baf0       0x90 drivers/mtd/spi/built-in.o
                0x000000008081baf0                spi_flash_cmd_write_ops
 .text.spi_flash_copy_mmap
                0x000000008081bb80        0x4 drivers/mtd/spi/built-in.o
                0x000000008081bb80                spi_flash_copy_mmap
 .text.spi_flash_cmd_read_ops
                0x000000008081bb84       0xc6 drivers/mtd/spi/built-in.o
                0x000000008081bb84                spi_flash_cmd_read_ops
 *fill*         0x000000008081bc4a        0x2 
 .text.spi_flash_scan
                0x000000008081bc4c      0x2bc drivers/mtd/spi/built-in.o
                0x000000008081bc4c                spi_flash_scan
 .text.spi_flash_read_write
                0x000000008081bf08       0x40 drivers/mtd/spi/built-in.o
 .text.spi_flash_cmd_read
                0x000000008081bf48       0x12 drivers/mtd/spi/built-in.o
                0x000000008081bf48                spi_flash_cmd_read
 .text.spi_flash_cmd
                0x000000008081bf5a       0x1a drivers/mtd/spi/built-in.o
                0x000000008081bf5a                spi_flash_cmd
 .text.spi_flash_cmd_write
                0x000000008081bf74       0x12 drivers/mtd/spi/built-in.o
                0x000000008081bf74                spi_flash_cmd_write
 .text.cpsw_halt
                0x000000008081bf86       0x2c drivers/net/built-in.o
 .text.cpsw_ale_read.isra.0
                0x000000008081bfb2       0x14 drivers/net/built-in.o
 .text.cpsw_ale_match_free
                0x000000008081bfc6       0x2e drivers/net/built-in.o
 .text.cpsw_ale_find_ageable
                0x000000008081bff4       0x34 drivers/net/built-in.o
 .text.cpsw_ale_match_addr
                0x000000008081c028       0x68 drivers/net/built-in.o
 .text.cpsw_ale_write.isra.1
                0x000000008081c090       0x16 drivers/net/built-in.o
 *fill*         0x000000008081c0a6        0x2 
 .text.cpsw_mdio_read
                0x000000008081c0a8       0x80 drivers/net/built-in.o
 .text.cpsw_mdio_write
                0x000000008081c128       0x78 drivers/net/built-in.o
 .text.cpdma_submit
                0x000000008081c1a0       0x4e drivers/net/built-in.o
 .text.cpdma_process
                0x000000008081c1ee       0x44 drivers/net/built-in.o
 *fill*         0x000000008081c232        0x2 
 .text.cpsw_send
                0x000000008081c234       0x54 drivers/net/built-in.o
 .text.cpsw_recv
                0x000000008081c288       0x46 drivers/net/built-in.o
 *fill*         0x000000008081c2ce        0x2 
 .text.cpsw_ale_add_mcast.constprop.9
                0x000000008081c2d0       0xc4 drivers/net/built-in.o
 .text.cpsw_init
                0x000000008081c394      0x314 drivers/net/built-in.o
 .text._cpsw_register
                0x000000008081c6a8      0x100 drivers/net/built-in.o
                0x000000008081c6a8                _cpsw_register
 .text.cpsw_register
                0x000000008081c7a8       0x90 drivers/net/built-in.o
                0x000000008081c7a8                cpsw_register
 .text.genphy_shutdown
                0x000000008081c838        0x4 drivers/net/phy/built-in.o
                0x000000008081c838                genphy_shutdown
 .text.genphy_restart_aneg
                0x000000008081c83c       0x36 drivers/net/phy/built-in.o
                0x000000008081c83c                genphy_restart_aneg
 .text.genphy_config_aneg
                0x000000008081c872      0x152 drivers/net/phy/built-in.o
                0x000000008081c872                genphy_config_aneg
 .text.genphy_config
                0x000000008081c9c4       0x90 drivers/net/phy/built-in.o
                0x000000008081c9c4                genphy_config
 .text.genphy_update_link
                0x000000008081ca54       0xdc drivers/net/phy/built-in.o
                0x000000008081ca54                genphy_update_link
 .text.genphy_parse_link
                0x000000008081cb30      0x106 drivers/net/phy/built-in.o
                0x000000008081cb30                genphy_parse_link
 .text.genphy_startup
                0x000000008081cc36       0x16 drivers/net/phy/built-in.o
                0x000000008081cc36                genphy_startup
 .text.phy_init
                0x000000008081cc4c        0xe drivers/net/phy/built-in.o
                0x000000008081cc4c                phy_init
 *fill*         0x000000008081cc5a        0x2 
 .text.phy_register
                0x000000008081cc5c       0x18 drivers/net/phy/built-in.o
                0x000000008081cc5c                phy_register
 .text.get_phy_id
                0x000000008081cc74       0x3e drivers/net/phy/built-in.o
                0x000000008081cc74                get_phy_id
 *fill*         0x000000008081ccb2        0x2 
 .text.get_phy_device_by_mask
                0x000000008081ccb4      0x1bc drivers/net/phy/built-in.o
 .text.phy_reset
                0x000000008081ce70       0x74 drivers/net/phy/built-in.o
                0x000000008081ce70                phy_reset
 .text.phy_find_by_mask
                0x000000008081cee4       0x24 drivers/net/phy/built-in.o
                0x000000008081cee4                phy_find_by_mask
 .text.phy_connect_dev
                0x000000008081cf08       0x2c drivers/net/phy/built-in.o
                0x000000008081cf08                phy_connect_dev
 .text.phy_connect
                0x000000008081cf34       0x34 drivers/net/phy/built-in.o
                0x000000008081cf34                phy_connect
 .text.phy_startup
                0x000000008081cf68        0xc drivers/net/phy/built-in.o
                0x000000008081cf68                phy_startup
 .text.board_phy_config
                0x000000008081cf74        0xc drivers/net/phy/built-in.o
                0x000000008081cf74                board_phy_config
 .text.phy_config
                0x000000008081cf80        0x4 drivers/net/phy/built-in.o
                0x000000008081cf80                phy_config
 .text.phy_write.constprop.0
                0x000000008081cf84       0x18 drivers/net/phy/built-in.o
 .text.ar8031_config
                0x000000008081cf9c       0x56 drivers/net/phy/built-in.o
 .text.ar8021_config
                0x000000008081cff2       0x22 drivers/net/phy/built-in.o
 .text.ar8035_config
                0x000000008081d014       0xba drivers/net/phy/built-in.o
 *fill*         0x000000008081d0ce        0x2 
 .text.phy_atheros_init
                0x000000008081d0d0       0x24 drivers/net/phy/built-in.o
                0x000000008081d0d0                phy_atheros_init
 .text.smsc_startup
                0x000000008081d0f4       0x36 drivers/net/phy/built-in.o
 *fill*         0x000000008081d12a        0x2 
 .text.phy_smsc_init
                0x000000008081d12c       0x30 drivers/net/phy/built-in.o
                0x000000008081d12c                phy_smsc_init
 .text._serial_putc
                0x000000008081d15c       0x22 drivers/serial/built-in.o
 .text._serial_tstc
                0x000000008081d17e       0x10 drivers/serial/built-in.o
 .text.serial_stub_putc
                0x000000008081d18e        0x6 drivers/serial/built-in.o
 .text.serial_stub_tstc
                0x000000008081d194        0x6 drivers/serial/built-in.o
                0x000000008081d194                serial_stub_tstc
 .text.serial_pre_remove
                0x000000008081d19a        0x4 drivers/serial/built-in.o
 .text._serial_getc
                0x000000008081d19e       0x20 drivers/serial/built-in.o
 .text.serial_stub_getc
                0x000000008081d1be        0x6 drivers/serial/built-in.o
                0x000000008081d1be                serial_stub_getc
 .text.serial_post_probe
                0x000000008081d1c4       0x74 drivers/serial/built-in.o
 .text.serial_stub_puts
                0x000000008081d238       0x16 drivers/serial/built-in.o
                0x000000008081d238                serial_stub_puts
 *fill*         0x000000008081d24e        0x2 
 .text.serial_init
                0x000000008081d250       0x50 drivers/serial/built-in.o
                0x000000008081d250                serial_init
 .text.serial_initialize
                0x000000008081d2a0        0x4 drivers/serial/built-in.o
                0x000000008081d2a0                serial_initialize
 .text.serial_putc
                0x000000008081d2a4       0x12 drivers/serial/built-in.o
                0x000000008081d2a4                serial_putc
 .text.serial_puts
                0x000000008081d2b6       0x1e drivers/serial/built-in.o
                0x000000008081d2b6                serial_puts
 .text.serial_getc
                0x000000008081d2d4       0x10 drivers/serial/built-in.o
                0x000000008081d2d4                serial_getc
 .text.serial_tstc
                0x000000008081d2e4       0x10 drivers/serial/built-in.o
                0x000000008081d2e4                serial_tstc
 .text.serial_setbrg
                0x000000008081d2f4       0x1e drivers/serial/built-in.o
                0x000000008081d2f4                serial_setbrg
 *fill*         0x000000008081d312        0x2 
 .text.on_baudrate
                0x000000008081d314       0x9c drivers/serial/built-in.o
 .text.serial_stdio_init
                0x000000008081d3b0        0x2 drivers/serial/built-in.o
                0x000000008081d3b0                serial_stdio_init
 .text.ns16550_writeb.isra.0
                0x000000008081d3b2       0x14 drivers/serial/built-in.o
 .text.NS16550_setbrg
                0x000000008081d3c6       0x34 drivers/serial/built-in.o
 .text.ns16550_serial_setbrg
                0x000000008081d3fa       0x24 drivers/serial/built-in.o
 .text.ns16550_readb.isra.1
                0x000000008081d41e       0x14 drivers/serial/built-in.o
 .text.ns16550_serial_pending
                0x000000008081d432       0x28 drivers/serial/built-in.o
 .text.ns16550_serial_putc
                0x000000008081d45a       0x32 drivers/serial/built-in.o
 .text.ns16550_serial_getc
                0x000000008081d48c       0x26 drivers/serial/built-in.o
 .text.NS16550_init
                0x000000008081d4b2       0x54 drivers/serial/built-in.o
                0x000000008081d4b2                NS16550_init
 .text.ns16550_serial_probe
                0x000000008081d506       0x20 drivers/serial/built-in.o
                0x000000008081d506                ns16550_serial_probe
 .text.spi_do_alloc_slave
                0x000000008081d526       0x30 drivers/spi/built-in.o
                0x000000008081d526                spi_do_alloc_slave
 .text.omap3_spi_write_chconf
                0x000000008081d556       0x20 drivers/spi/built-in.o
 .text.omap3_spi_set_enable
                0x000000008081d576       0x20 drivers/spi/built-in.o
 *fill*         0x000000008081d596        0x2 
 .text._omap3_spi_set_speed
                0x000000008081d598       0x40 drivers/spi/built-in.o
 .text._omap3_spi_set_mode
                0x000000008081d5d8       0x52 drivers/spi/built-in.o
 .text.spi_init
                0x000000008081d62a        0x2 drivers/spi/built-in.o
                0x000000008081d62a                spi_init
 .text.spi_free_slave
                0x000000008081d62c        0x4 drivers/spi/built-in.o
                0x000000008081d62c                spi_free_slave
 .text.spi_claim_bus
                0x000000008081d630       0x74 drivers/spi/built-in.o
                0x000000008081d630                spi_claim_bus
 .text.spi_release_bus
                0x000000008081d6a4       0x26 drivers/spi/built-in.o
                0x000000008081d6a4                spi_release_bus
 *fill*         0x000000008081d6ca        0x2 
 .text.spi_setup_slave
                0x000000008081d6cc       0x9c drivers/spi/built-in.o
                0x000000008081d6cc                spi_setup_slave
 .text.spi_xfer
                0x000000008081d768      0x32c drivers/spi/built-in.o
                0x000000008081d768                spi_xfer
 .text.usb_ep_autoconfig
                0x000000008081da94      0x118 drivers/usb/gadget/built-in.o
                0x000000008081da94                usb_ep_autoconfig
 .text.usb_ep_autoconfig_reset
                0x000000008081dbac       0x28 drivers/usb/gadget/built-in.o
                0x000000008081dbac                usb_ep_autoconfig_reset
 .text.usb_descriptor_fillbuf
                0x000000008081dbd4       0x36 drivers/usb/gadget/built-in.o
                0x000000008081dbd4                usb_descriptor_fillbuf
 .text.usb_gadget_config_buf
                0x000000008081dc0a       0x54 drivers/usb/gadget/built-in.o
                0x000000008081dc0a                usb_gadget_config_buf
 .text.usb_gadget_get_string
                0x000000008081dc5e       0xe2 drivers/usb/gadget/built-in.o
                0x000000008081dc5e                usb_gadget_get_string
 .text.count_configs
                0x000000008081dd40       0x48 drivers/usb/gadget/built-in.o
 .text.collect_langs
                0x000000008081dd88       0x2a drivers/usb/gadget/built-in.o
 .text.composite_setup_complete
                0x000000008081ddb2        0x2 drivers/usb/gadget/built-in.o
 .text.composite_suspend
                0x000000008081ddb4       0x40 drivers/usb/gadget/built-in.o
 .text.composite_resume
                0x000000008081ddf4       0x40 drivers/usb/gadget/built-in.o
 .text.g_dnl_unbind
                0x000000008081de34       0x12 drivers/usb/gadget/built-in.o
 .text.lookup_string
                0x000000008081de46       0x2a drivers/usb/gadget/built-in.o
 .text.composite_unbind
                0x000000008081de70       0xb4 drivers/usb/gadget/built-in.o
 .text.composite_bind
                0x000000008081df24       0xac drivers/usb/gadget/built-in.o
 .text.g_dnl_do_config
                0x000000008081dfd0       0x28 drivers/usb/gadget/built-in.o
 .text.reset_config.isra.0
                0x000000008081dff8       0x2e drivers/usb/gadget/built-in.o
 *fill*         0x000000008081e026        0x2 
 .text.composite_disconnect
                0x000000008081e028       0x28 drivers/usb/gadget/built-in.o
 .text.composite_setup
                0x000000008081e050      0x538 drivers/usb/gadget/built-in.o
 .text.usb_add_function
                0x000000008081e588       0x74 drivers/usb/gadget/built-in.o
                0x000000008081e588                usb_add_function
 .text.usb_interface_id
                0x000000008081e5fc       0x20 drivers/usb/gadget/built-in.o
                0x000000008081e5fc                usb_interface_id
 .text.usb_add_config
                0x000000008081e61c       0x7a drivers/usb/gadget/built-in.o
                0x000000008081e61c                usb_add_config
 .text.usb_string_id
                0x000000008081e696       0x1a drivers/usb/gadget/built-in.o
                0x000000008081e696                usb_string_id
 .text.usb_composite_register
                0x000000008081e6b0       0x3c drivers/usb/gadget/built-in.o
                0x000000008081e6b0                usb_composite_register
 .text.usb_composite_unregister
                0x000000008081e6ec       0x20 drivers/usb/gadget/built-in.o
                0x000000008081e6ec                usb_composite_unregister
 .text.g_dnl_set_serialnumber
                0x000000008081e70c       0x34 drivers/usb/gadget/built-in.o
                0x000000008081e70c                g_dnl_set_serialnumber
 .text.g_dnl_bind_fixup
                0x000000008081e740        0x4 drivers/usb/gadget/built-in.o
                0x000000008081e740                g_dnl_bind_fixup
 .text.g_dnl_get_board_bcd_device_number
                0x000000008081e744        0x2 drivers/usb/gadget/built-in.o
                0x000000008081e744                g_dnl_get_board_bcd_device_number
 *fill*         0x000000008081e746        0x2 
 .text.g_dnl_bind
                0x000000008081e748       0xd8 drivers/usb/gadget/built-in.o
 .text.g_dnl_board_usb_cable_connected
                0x000000008081e820        0x6 drivers/usb/gadget/built-in.o
                0x000000008081e820                g_dnl_board_usb_cable_connected
 *fill*         0x000000008081e826        0x2 
 .text.g_dnl_detach
                0x000000008081e828        0xc drivers/usb/gadget/built-in.o
                0x000000008081e828                g_dnl_detach
 .text.g_dnl_trigger_detach
                0x000000008081e834        0xc drivers/usb/gadget/built-in.o
                0x000000008081e834                g_dnl_trigger_detach
 .text.g_dnl_clear_detach
                0x000000008081e840        0xc drivers/usb/gadget/built-in.o
                0x000000008081e840                g_dnl_clear_detach
 .text.g_dnl_register
                0x000000008081e84c       0x2c drivers/usb/gadget/built-in.o
                0x000000008081e84c                g_dnl_register
 .text.g_dnl_unregister
                0x000000008081e878        0xc drivers/usb/gadget/built-in.o
                0x000000008081e878                g_dnl_unregister
 .text.handle_getstate
                0x000000008081e884        0xe drivers/usb/gadget/built-in.o
 .text.dfu_set_alt
                0x000000008081e892       0x10 drivers/usb/gadget/built-in.o
 .text.__dfu_get_alt
                0x000000008081e8a2        0x6 drivers/usb/gadget/built-in.o
 .text.dfu_disable
                0x000000008081e8a8        0xe drivers/usb/gadget/built-in.o
 *fill*         0x000000008081e8b6        0x2 
 .text.dfu_add  0x000000008081e8b8       0x98 drivers/usb/gadget/built-in.o
                0x000000008081e8b8                dfu_add
 .text.dfu_handle
                0x000000008081e950       0x84 drivers/usb/gadget/built-in.o
 .text.dnload_request_flush
                0x000000008081e9d4       0x18 drivers/usb/gadget/built-in.o
 .text.dnload_request_complete
                0x000000008081e9ec       0x24 drivers/usb/gadget/built-in.o
 .text.dfu_unbind
                0x000000008081ea10       0x50 drivers/usb/gadget/built-in.o
 .text.dfu_bind
                0x000000008081ea60      0x128 drivers/usb/gadget/built-in.o
 .text.handle_upload.isra.5
                0x000000008081eb88       0x1c drivers/usb/gadget/built-in.o
 .text.handle_getstatus
                0x000000008081eba4       0x9a drivers/usb/gadget/built-in.o
 .text.state_dfu_error
                0x000000008081ec3e       0x38 drivers/usb/gadget/built-in.o
 *fill*         0x000000008081ec76        0x2 
 .text.state_dfu_manifest_sync
                0x000000008081ec78       0x40 drivers/usb/gadget/built-in.o
 .text.state_dfu_dnload_idle
                0x000000008081ecb8       0x64 drivers/usb/gadget/built-in.o
 .text.state_dfu_dnbusy
                0x000000008081ed1c       0x1c drivers/usb/gadget/built-in.o
 .text.state_dfu_dnload_sync
                0x000000008081ed38       0x2a drivers/usb/gadget/built-in.o
 .text.state_app_detach
                0x000000008081ed62       0x2c drivers/usb/gadget/built-in.o
 *fill*         0x000000008081ed8e        0x2 
 .text.state_app_idle
                0x000000008081ed90       0x40 drivers/usb/gadget/built-in.o
 .text.state_dfu_upload_idle
                0x000000008081edd0       0x58 drivers/usb/gadget/built-in.o
 .text.state_dfu_manifest
                0x000000008081ee28       0x3c drivers/usb/gadget/built-in.o
 .text.state_dfu_idle
                0x000000008081ee64       0x80 drivers/usb/gadget/built-in.o
 .text.rx_bytes_expected
                0x000000008081eee4       0x3c drivers/usb/gadget/built-in.o
 .text.fastboot_start_ep
                0x000000008081ef20       0x3c drivers/usb/gadget/built-in.o
 .text.fastboot_unbind
                0x000000008081ef5c       0x10 drivers/usb/gadget/built-in.o
 .text.fastboot_add
                0x000000008081ef6c       0x74 drivers/usb/gadget/built-in.o
 .text.fastboot_disable
                0x000000008081efe0       0x46 drivers/usb/gadget/built-in.o
 *fill*         0x000000008081f026        0x2 
 .text.fastboot_set_alt
                0x000000008081f028       0xbc drivers/usb/gadget/built-in.o
 .text.fastboot_complete
                0x000000008081f0e4       0x18 drivers/usb/gadget/built-in.o
 .text.do_exit_on_complete
                0x000000008081f0fc        0x4 drivers/usb/gadget/built-in.o
 .text.do_bootm_on_complete
                0x000000008081f100       0x50 drivers/usb/gadget/built-in.o
 .text.compl_do_reset
                0x000000008081f150        0xc drivers/usb/gadget/built-in.o
 .text.strcmp_l1
                0x000000008081f15c       0x22 drivers/usb/gadget/built-in.o
 *fill*         0x000000008081f17e        0x2 
 .text.fastboot_tx_write_str
                0x000000008081f180       0x4c drivers/usb/gadget/built-in.o
 .text.rx_handler_command
                0x000000008081f1cc       0xb0 drivers/usb/gadget/built-in.o
 .text.cb_continue
                0x000000008081f27c       0x1c drivers/usb/gadget/built-in.o
 .text.cb_boot  0x000000008081f298       0x1c drivers/usb/gadget/built-in.o
 .text.cb_download
                0x000000008081f2b4       0x88 drivers/usb/gadget/built-in.o
 .text.rx_handler_dl_image
                0x000000008081f33c       0xc0 drivers/usb/gadget/built-in.o
 .text.cb_getvar
                0x000000008081f3fc      0x120 drivers/usb/gadget/built-in.o
 .text.fastboot_bind
                0x000000008081f51c       0xa8 drivers/usb/gadget/built-in.o
 .text.cb_oem   0x000000008081f5c4       0x68 drivers/usb/gadget/built-in.o
 .text.cb_reboot
                0x000000008081f62c       0x40 drivers/usb/gadget/built-in.o
 .text.eth_setup_complete
                0x000000008081f66c        0x2 drivers/usb/gadget/built-in.o
 *fill*         0x000000008081f66e        0x2 
 .text.tx_complete
                0x000000008081f670       0x34 drivers/usb/gadget/built-in.o
 .text.eth_suspend
                0x000000008081f6a4        0x2 drivers/usb/gadget/built-in.o
 *fill*         0x000000008081f6a6        0x2 
 .text.nibble   0x000000008081f6a8       0x28 drivers/usb/gadget/built-in.o
 .text.rx_complete
                0x000000008081f6d0       0x88 drivers/usb/gadget/built-in.o
 .text.usb_eth_send
                0x000000008081f758       0xec drivers/usb/gadget/built-in.o
 .text.rndis_command_complete
                0x000000008081f844       0x38 drivers/usb/gadget/built-in.o
 .text.eth_unbind
                0x000000008081f87c       0x5a drivers/usb/gadget/built-in.o
 *fill*         0x000000008081f8d6        0x2 
 .text.rndis_control_ack_complete
                0x000000008081f8d8       0x4c drivers/usb/gadget/built-in.o
 .text.rndis_control_ack
                0x000000008081f924       0x68 drivers/usb/gadget/built-in.o
 .text.eth_reset_config
                0x000000008081f98c       0x6c drivers/usb/gadget/built-in.o
 .text.eth_disconnect
                0x000000008081f9f8        0x6 drivers/usb/gadget/built-in.o
 *fill*         0x000000008081f9fe        0x2 
 .text.set_ether_config.isra.5
                0x000000008081fa00      0x13c drivers/usb/gadget/built-in.o
 .text.get_ether_addr
                0x000000008081fb3c       0x68 drivers/usb/gadget/built-in.o
 .text.eth_bind
                0x000000008081fba4      0x36c drivers/usb/gadget/built-in.o
 .text.is_eth_addr_valid.part.8
                0x000000008081ff10       0x6c drivers/usb/gadget/built-in.o
 .text.rx_submit.constprop.10
                0x000000008081ff7c       0x78 drivers/usb/gadget/built-in.o
 .text.usb_eth_recv
                0x000000008081fff4       0x54 drivers/usb/gadget/built-in.o
 .text.eth_setup
                0x0000000080820048      0x2dc drivers/usb/gadget/built-in.o
 .text.rndis_response_complete
                0x0000000080820324        0x2 drivers/usb/gadget/built-in.o
 .text.eth_resume
                0x0000000080820326        0x2 drivers/usb/gadget/built-in.o
 .text.usb_eth_init
                0x0000000080820328      0x1a4 drivers/usb/gadget/built-in.o
 .text._usb_eth_halt
                0x00000000808204cc       0x74 drivers/usb/gadget/built-in.o
                0x00000000808204cc                _usb_eth_halt
 .text.usb_eth_halt
                0x0000000080820540        0x6 drivers/usb/gadget/built-in.o
                0x0000000080820540                usb_eth_halt
 *fill*         0x0000000080820546        0x2 
 .text.usb_eth_initialize
                0x0000000080820548       0x54 drivers/usb/gadget/built-in.o
                0x0000000080820548                usb_eth_initialize
 .text.rndis_add_response
                0x000000008082059c       0x38 drivers/usb/gadget/built-in.o
 .text.rndis_signal_connect
                0x00000000808205d4       0x54 drivers/usb/gadget/built-in.o
                0x00000000808205d4                rndis_signal_connect
 .text.rndis_signal_disconnect
                0x0000000080820628       0x14 drivers/usb/gadget/built-in.o
                0x0000000080820628                rndis_signal_disconnect
 .text.rndis_set_host_mac
                0x000000008082063c       0x10 drivers/usb/gadget/built-in.o
                0x000000008082063c                rndis_set_host_mac
 .text.rndis_get_state
                0x000000008082064c       0x14 drivers/usb/gadget/built-in.o
                0x000000008082064c                rndis_get_state
 .text.rndis_msg_parser
                0x0000000080820660      0x49c drivers/usb/gadget/built-in.o
                0x0000000080820660                rndis_msg_parser
 .text.rndis_register
                0x0000000080820afc       0x1c drivers/usb/gadget/built-in.o
                0x0000000080820afc                rndis_register
 .text.rndis_deregister
                0x0000000080820b18       0x18 drivers/usb/gadget/built-in.o
                0x0000000080820b18                rndis_deregister
 .text.rndis_set_param_dev
                0x0000000080820b30       0x20 drivers/usb/gadget/built-in.o
                0x0000000080820b30                rndis_set_param_dev
 .text.rndis_set_param_vendor
                0x0000000080820b50       0x18 drivers/usb/gadget/built-in.o
                0x0000000080820b50                rndis_set_param_vendor
 .text.rndis_set_param_medium
                0x0000000080820b68       0x14 drivers/usb/gadget/built-in.o
                0x0000000080820b68                rndis_set_param_medium
 .text.rndis_add_hdr
                0x0000000080820b7c       0x4e drivers/usb/gadget/built-in.o
                0x0000000080820b7c                rndis_add_hdr
 *fill*         0x0000000080820bca        0x2 
 .text.rndis_free_response
                0x0000000080820bcc       0x40 drivers/usb/gadget/built-in.o
                0x0000000080820bcc                rndis_free_response
 .text.rndis_get_next_response
                0x0000000080820c0c       0x38 drivers/usb/gadget/built-in.o
                0x0000000080820c0c                rndis_get_next_response
 .text.rndis_uninit
                0x0000000080820c44       0x30 drivers/usb/gadget/built-in.o
                0x0000000080820c44                rndis_uninit
 .text.rndis_rm_hdr
                0x0000000080820c74       0x5e drivers/usb/gadget/built-in.o
                0x0000000080820c74                rndis_rm_hdr
 *fill*         0x0000000080820cd2        0x2 
 .text.rndis_init
                0x0000000080820cd4       0x1c drivers/usb/gadget/built-in.o
                0x0000000080820cd4                rndis_init
 .text.rndis_exit
                0x0000000080820cf0        0x2 drivers/usb/gadget/built-in.o
                0x0000000080820cf0                rndis_exit
 .text.musb_gadget_enable
                0x0000000080820cf2      0x192 drivers/usb/musb-new/built-in.o
 .text.musb_gadget_fifo_status
                0x0000000080820e84       0x26 drivers/usb/musb-new/built-in.o
 .text.musb_gadget_fifo_flush
                0x0000000080820eaa       0x50 drivers/usb/musb-new/built-in.o
 .text.musb_gadget_get_frame
                0x0000000080820efa        0xc drivers/usb/musb-new/built-in.o
 .text.musb_gadget_wakeup
                0x0000000080820f06        0x4 drivers/usb/musb-new/built-in.o
 .text.musb_gadget_set_self_powered
                0x0000000080820f0a       0x16 drivers/usb/musb-new/built-in.o
 .text.musb_gadget_vbus_draw
                0x0000000080820f20        0x4 drivers/usb/musb-new/built-in.o
 .text.txstate  0x0000000080820f24       0x70 drivers/usb/musb-new/built-in.o
 .text.musb_alloc_request
                0x0000000080820f94       0x22 drivers/usb/musb-new/built-in.o
                0x0000000080820f94                musb_alloc_request
 .text.musb_free_request
                0x0000000080820fb6        0x6 drivers/usb/musb-new/built-in.o
                0x0000000080820fb6                musb_free_request
 .text.init_peripheral_ep
                0x0000000080820fbc       0xb0 drivers/usb/musb-new/built-in.o
 .text.musb_gadget_pullup
                0x000000008082106c       0x38 drivers/usb/musb-new/built-in.o
 .text.musb_g_giveback
                0x00000000808210a4       0x32 drivers/usb/musb-new/built-in.o
                0x00000000808210a4                musb_g_giveback
 .text.rxstate  0x00000000808210d6       0x98 drivers/usb/musb-new/built-in.o
 .text.musb_gadget_dequeue
                0x000000008082116e       0x40 drivers/usb/musb-new/built-in.o
 .text.musb_gadget_disable
                0x00000000808211ae       0x66 drivers/usb/musb-new/built-in.o
 .text.musb_g_tx
                0x0000000080821214       0xe6 drivers/usb/musb-new/built-in.o
                0x0000000080821214                musb_g_tx
 .text.musb_g_rx
                0x00000000808212fa       0x6e drivers/usb/musb-new/built-in.o
                0x00000000808212fa                musb_g_rx
 .text.musb_ep_restart
                0x0000000080821368       0x1e drivers/usb/musb-new/built-in.o
                0x0000000080821368                musb_ep_restart
 .text.musb_gadget_set_halt
                0x0000000080821386       0xb2 drivers/usb/musb-new/built-in.o
 .text.musb_gadget_queue
                0x0000000080821438       0x72 drivers/usb/musb-new/built-in.o
 *fill*         0x00000000808214aa        0x2 
 .text.musb_gadget_setup
                0x00000000808214ac       0x90 drivers/usb/musb-new/built-in.o
                0x00000000808214ac                musb_gadget_setup
 .text.musb_gadget_start
                0x000000008082153c       0x2a drivers/usb/musb-new/built-in.o
                0x000000008082153c                musb_gadget_start
 .text.musb_g_ep0_enable
                0x0000000080821566        0x6 drivers/usb/musb-new/built-in.o
 .text.musb_g_ep0_disable
                0x000000008082156c        0x6 drivers/usb/musb-new/built-in.o
 .text.musb_g_ep0_halt
                0x0000000080821572       0x60 drivers/usb/musb-new/built-in.o
 .text.musb_g_ep0_dequeue
                0x00000000808215d2        0x6 drivers/usb/musb-new/built-in.o
 .text.ep0_txstate
                0x00000000808215d8       0x9a drivers/usb/musb-new/built-in.o
 .text.musb_g_ep0_queue
                0x0000000080821672       0xb0 drivers/usb/musb-new/built-in.o
 *fill*         0x0000000080821722        0x2 
 .text.musb_g_ep0_irq
                0x0000000080821724      0x5f4 drivers/usb/musb-new/built-in.o
                0x0000000080821724                musb_g_ep0_irq
 .text.fifo_setup
                0x0000000080821d18       0xfe drivers/usb/musb-new/built-in.o
 .text.musb_write_fifo
                0x0000000080821e16       0x74 drivers/usb/musb-new/built-in.o
                0x0000000080821e16                musb_write_fifo
 .text.musb_read_fifo
                0x0000000080821e8a       0x74 drivers/usb/musb-new/built-in.o
                0x0000000080821e8a                musb_read_fifo
 *fill*         0x0000000080821efe        0x2 
 .text.musb_load_testpacket
                0x0000000080821f00       0x24 drivers/usb/musb-new/built-in.o
                0x0000000080821f00                musb_load_testpacket
 .text.musb_start
                0x0000000080821f24       0x84 drivers/usb/musb-new/built-in.o
                0x0000000080821f24                musb_start
 .text.musb_stop
                0x0000000080821fa8       0x32 drivers/usb/musb-new/built-in.o
                0x0000000080821fa8                musb_stop
 .text.musb_interrupt
                0x0000000080821fda       0xca drivers/usb/musb-new/built-in.o
                0x0000000080821fda                musb_interrupt
 .text.musb_init_controller
                0x00000000808220a4      0x414 drivers/usb/musb-new/built-in.o
                0x00000000808220a4                musb_init_controller
 .text.musb_host_complete_urb
                0x00000000808224b8       0x16 drivers/usb/musb-new/built-in.o
 *fill*         0x00000000808224ce        0x2 
 .text.construct_urb
                0x00000000808224d0       0x90 drivers/usb/musb-new/built-in.o
 .text._musb_reset_root_port.isra.1
                0x0000000080822560       0x56 drivers/usb/musb-new/built-in.o
 *fill*         0x00000000808225b6        0x2 
 .text.submit_urb.constprop.8
                0x00000000808225b8       0x84 drivers/usb/musb-new/built-in.o
 .text.musb_lowlevel_init
                0x000000008082263c       0x74 drivers/usb/musb-new/built-in.o
                0x000000008082263c                musb_lowlevel_init
 .text.usb_lowlevel_stop
                0x00000000808226b0       0x24 drivers/usb/musb-new/built-in.o
                0x00000000808226b0                usb_lowlevel_stop
 .text.submit_bulk_msg
                0x00000000808226d4       0x2c drivers/usb/musb-new/built-in.o
                0x00000000808226d4                submit_bulk_msg
 .text.submit_control_msg
                0x0000000080822700       0x3c drivers/usb/musb-new/built-in.o
                0x0000000080822700                submit_control_msg
 .text.submit_int_msg
                0x000000008082273c       0x30 drivers/usb/musb-new/built-in.o
                0x000000008082273c                submit_int_msg
 .text.usb_reset_root_port
                0x000000008082276c        0xc drivers/usb/musb-new/built-in.o
                0x000000008082276c                usb_reset_root_port
 .text.usb_lowlevel_init
                0x0000000080822778        0xc drivers/usb/musb-new/built-in.o
                0x0000000080822778                usb_lowlevel_init
 .text.usb_gadget_handle_interrupts
                0x0000000080822784       0x24 drivers/usb/musb-new/built-in.o
                0x0000000080822784                usb_gadget_handle_interrupts
 .text.usb_gadget_register_driver
                0x00000000808227a8       0x78 drivers/usb/musb-new/built-in.o
                0x00000000808227a8                usb_gadget_register_driver
 .text.usb_gadget_unregister_driver
                0x0000000080822820       0x28 drivers/usb/musb-new/built-in.o
                0x0000000080822820                usb_gadget_unregister_driver
 .text.musb_register
                0x0000000080822848       0x2c drivers/usb/musb-new/built-in.o
                0x0000000080822848                musb_register
 .text.musb_h_ep0_flush_fifo
                0x0000000080822874       0x3c drivers/usb/musb-new/built-in.o
 .text.musb_h_tx_flush_fifo
                0x00000000808228b0       0x3c drivers/usb/musb-new/built-in.o
 .text.musb_start_urb
                0x00000000808228ec      0x33c drivers/usb/musb-new/built-in.o
 .text.musb_advance_schedule
                0x0000000080822c28      0x13c drivers/usb/musb-new/built-in.o
 .text.musb_h_ep0_irq
                0x0000000080822d64      0x1b8 drivers/usb/musb-new/built-in.o
                0x0000000080822d64                musb_h_ep0_irq
 .text.musb_host_tx
                0x0000000080822f1c      0x120 drivers/usb/musb-new/built-in.o
                0x0000000080822f1c                musb_host_tx
 .text.musb_host_rx
                0x000000008082303c      0x268 drivers/usb/musb-new/built-in.o
                0x000000008082303c                musb_host_rx
 .text.musb_urb_enqueue
                0x00000000808232a4      0x32a drivers/usb/musb-new/built-in.o
                0x00000000808232a4                musb_urb_enqueue
 .text.musb_urb_dequeue
                0x00000000808235ce       0xd2 drivers/usb/musb-new/built-in.o
                0x00000000808235ce                musb_urb_dequeue
 .text.dsps_musb_enable
                0x00000000808236a0       0x1c drivers/usb/musb-new/built-in.o
 .text.dsps_musb_disable
                0x00000000808236bc        0x2 drivers/usb/musb-new/built-in.o
 *fill*         0x00000000808236be        0x2 
 .text.dsps_musb_init
                0x00000000808236c0       0x50 drivers/usb/musb-new/built-in.o
 .text.dsps_musb_exit
                0x0000000080823710       0x14 drivers/usb/musb-new/built-in.o
 .text.dsps_interrupt
                0x0000000080823724       0x48 drivers/usb/musb-new/built-in.o
 .text.fs_probe_unsupported
                0x000000008082376c       0x14 fs/built-in.o
 .text.fs_ls_unsupported
                0x0000000080823780        0x6 fs/built-in.o
 .text.fs_exists_unsupported
                0x0000000080823786        0x4 fs/built-in.o
 .text.fs_size_unsupported
                0x000000008082378a        0x6 fs/built-in.o
 .text.fs_read_unsupported
                0x0000000080823790        0x6 fs/built-in.o
 .text.fs_close_unsupported
                0x0000000080823796        0x2 fs/built-in.o
 .text.fs_get_info.part.0
                0x0000000080823798       0x24 fs/built-in.o
 .text.fs_close
                0x00000000808237bc       0x18 fs/built-in.o
 .text.fs_write_unsupported
                0x00000000808237d4        0x6 fs/built-in.o
 .text.fs_uuid_unsupported
                0x00000000808237da        0x6 fs/built-in.o
 .text.fs_set_blk_dev
                0x00000000808237e0       0x64 fs/built-in.o
                0x00000000808237e0                fs_set_blk_dev
 .text.fs_ls    0x0000000080823844       0x24 fs/built-in.o
                0x0000000080823844                fs_ls
 .text.fs_exists
                0x0000000080823868       0x20 fs/built-in.o
                0x0000000080823868                fs_exists
 .text.fs_size  0x0000000080823888       0x24 fs/built-in.o
                0x0000000080823888                fs_size
 .text.fs_read  0x00000000808238ac       0x60 fs/built-in.o
                0x00000000808238ac                fs_read
 .text.fs_write
                0x000000008082390c       0x60 fs/built-in.o
                0x000000008082390c                fs_write
 .text.do_size  0x000000008082396c       0x40 fs/built-in.o
                0x000000008082396c                do_size
 .text.do_load  0x00000000808239ac      0x17c fs/built-in.o
                0x00000000808239ac                do_load
 .text.do_ls    0x0000000080823b28       0x40 fs/built-in.o
                0x0000000080823b28                do_ls
 .text.file_exists
                0x0000000080823b68       0x1a fs/built-in.o
                0x0000000080823b68                file_exists
 *fill*         0x0000000080823b82        0x2 
 .text.do_save  0x0000000080823b84       0xf8 fs/built-in.o
                0x0000000080823b84                do_save
 .text.do_fs_type
                0x0000000080823c7c       0x4c fs/built-in.o
                0x0000000080823c7c                do_fs_type
 .text.get_fs   0x0000000080823cc8        0x8 fs/built-in.o
                0x0000000080823cc8                get_fs
 .text.ext4fs_free_node
                0x0000000080823cd0       0x1c fs/built-in.o
                0x0000000080823cd0                ext4fs_free_node
 .text.ext4fs_read_file
                0x0000000080823cec      0x23c fs/built-in.o
                0x0000000080823cec                ext4fs_read_file
 .text.ext4fs_ls
                0x0000000080823f28       0x48 fs/built-in.o
                0x0000000080823f28                ext4fs_ls
 .text.ext4fs_exists
                0x0000000080823f70       0x14 fs/built-in.o
                0x0000000080823f70                ext4fs_exists
 .text.ext4fs_size
                0x0000000080823f84        0x4 fs/built-in.o
                0x0000000080823f84                ext4fs_size
 .text.ext4fs_read
                0x0000000080823f88       0x38 fs/built-in.o
                0x0000000080823f88                ext4fs_read
 .text.ext4fs_probe
                0x0000000080823fc0       0x1e fs/built-in.o
                0x0000000080823fc0                ext4fs_probe
 *fill*         0x0000000080823fde        0x2 
 .text.ext4_read_file
                0x0000000080823fe0       0x50 fs/built-in.o
                0x0000000080823fe0                ext4_read_file
 .text.ext4fs_uuid
                0x0000000080824030       0x20 fs/built-in.o
                0x0000000080824030                ext4fs_uuid
 .text.ext4fs_get_group_descriptor
                0x0000000080824050        0xa fs/built-in.o
                0x0000000080824050                ext4fs_get_group_descriptor
 .text.ext4fs_sb_get_free_blocks
                0x000000008082405a       0x1c fs/built-in.o
                0x000000008082405a                ext4fs_sb_get_free_blocks
 .text.ext4fs_sb_set_free_blocks
                0x0000000080824076        0xa fs/built-in.o
                0x0000000080824076                ext4fs_sb_set_free_blocks
 .text.ext4fs_bg_get_free_blocks
                0x0000000080824080       0x12 fs/built-in.o
                0x0000000080824080                ext4fs_bg_get_free_blocks
 .text.ext4fs_bg_get_block_id
                0x0000000080824092       0x1a fs/built-in.o
                0x0000000080824092                ext4fs_bg_get_block_id
 .text.ext4fs_bg_get_inode_id
                0x00000000808240ac       0x1a fs/built-in.o
                0x00000000808240ac                ext4fs_bg_get_inode_id
 .text.ext4fs_bg_get_inode_table_id
                0x00000000808240c6       0x1a fs/built-in.o
                0x00000000808240c6                ext4fs_bg_get_inode_table_id
 .text.ext4fs_div_roundup
                0x00000000808240e0       0x14 fs/built-in.o
                0x00000000808240e0                ext4fs_div_roundup
 .text.put_ext4
                0x00000000808240f4      0x128 fs/built-in.o
                0x00000000808240f4                put_ext4
 .text.ext4fs_set_block_bmap
                0x000000008082421c       0x6c fs/built-in.o
                0x000000008082421c                ext4fs_set_block_bmap
 .text.ext4fs_reset_block_bmap
                0x0000000080824288       0x68 fs/built-in.o
                0x0000000080824288                ext4fs_reset_block_bmap
 .text.ext4fs_set_inode_bmap
                0x00000000808242f0       0x4c fs/built-in.o
                0x00000000808242f0                ext4fs_set_inode_bmap
 .text.ext4fs_reset_inode_bmap
                0x000000008082433c       0x48 fs/built-in.o
                0x000000008082433c                ext4fs_reset_inode_bmap
 .text.ext4fs_checksum_update
                0x0000000080824384       0x46 fs/built-in.o
                0x0000000080824384                ext4fs_checksum_update
 *fill*         0x00000000808243ca        0x2 
 .text.ext4fs_get_new_blk_no
                0x00000000808243cc      0x2c0 fs/built-in.o
                0x00000000808243cc                ext4fs_get_new_blk_no
 .text.ext4fs_get_new_inode_no
                0x000000008082468c      0x2b4 fs/built-in.o
                0x000000008082468c                ext4fs_get_new_inode_no
 .text.ext4fs_allocate_blocks
                0x0000000080824940      0x408 fs/built-in.o
                0x0000000080824940                ext4fs_allocate_blocks
 .text.ext4fs_read_inode
                0x0000000080824d48       0xc6 fs/built-in.o
                0x0000000080824d48                ext4fs_read_inode
 *fill*         0x0000000080824e0e        0x2 
 .text.ext4fs_iget
                0x0000000080824e10       0x1c fs/built-in.o
                0x0000000080824e10                ext4fs_iget
 .text.read_allocated_block
                0x0000000080824e2c      0x5f4 fs/built-in.o
                0x0000000080824e2c                read_allocated_block
 .text.ext4fs_update_parent_dentry
                0x0000000080825420      0x240 fs/built-in.o
                0x0000000080825420                ext4fs_update_parent_dentry
 .text.search_dir
                0x0000000080825660       0xc0 fs/built-in.o
 .text.ext4fs_get_parent_inode_num
                0x0000000080825720      0x2bc fs/built-in.o
                0x0000000080825720                ext4fs_get_parent_inode_num
 .text.ext4fs_filename_unlink
                0x00000000808259dc      0x114 fs/built-in.o
                0x00000000808259dc                ext4fs_filename_unlink
 .text.ext4fs_reinit_global
                0x0000000080825af0       0x78 fs/built-in.o
                0x0000000080825af0                ext4fs_reinit_global
 .text.ext4fs_close
                0x0000000080825b68       0x38 fs/built-in.o
                0x0000000080825b68                ext4fs_close
 .text.ext4fs_iterate_dir
                0x0000000080825ba0      0x1f0 fs/built-in.o
                0x0000000080825ba0                ext4fs_iterate_dir
 .text.ext4fs_find_file1
                0x0000000080825d90      0x1b4 fs/built-in.o
 .text.ext4fs_find_file
                0x0000000080825f44       0x44 fs/built-in.o
                0x0000000080825f44                ext4fs_find_file
 .text.ext4fs_open
                0x0000000080825f88       0x64 fs/built-in.o
                0x0000000080825f88                ext4fs_open
 .text.ext4fs_mount
                0x0000000080825fec       0x90 fs/built-in.o
                0x0000000080825fec                ext4fs_mount
 .text.ext4fs_set_blk_dev
                0x000000008082607c       0x5c fs/built-in.o
                0x000000008082607c                ext4fs_set_blk_dev
 .text.ext4fs_devread
                0x00000000808260d8      0x188 fs/built-in.o
                0x00000000808260d8                ext4fs_devread
 .text.ext4_read_superblock
                0x0000000080826260       0x28 fs/built-in.o
                0x0000000080826260                ext4_read_superblock
 .text.ext4fs_update
                0x0000000080826288       0xc0 fs/built-in.o
 .text.ext4fs_get_bgdtable
                0x0000000080826348       0x78 fs/built-in.o
                0x0000000080826348                ext4fs_get_bgdtable
 .text.ext4fs_deinit
                0x00000000808263c0       0xf8 fs/built-in.o
                0x00000000808263c0                ext4fs_deinit
 .text.ext4fs_init
                0x00000000808264b8      0x1d4 fs/built-in.o
                0x00000000808264b8                ext4fs_init
 .text.ext4fs_write
                0x000000008082668c      0xbd8 fs/built-in.o
                0x000000008082668c                ext4fs_write
 .text.ext4_write_file
                0x0000000080827264       0x44 fs/built-in.o
                0x0000000080827264                ext4_write_file
 .text.ext4fs_dump_metadata
                0x00000000808272a8       0x3c fs/built-in.o
                0x00000000808272a8                ext4fs_dump_metadata
 .text.ext4fs_free_journal
                0x00000000808272e4       0x80 fs/built-in.o
                0x00000000808272e4                ext4fs_free_journal
 .text.ext4fs_log_gdt
                0x0000000080827364       0x88 fs/built-in.o
                0x0000000080827364                ext4fs_log_gdt
 .text.ext4fs_log_journal
                0x00000000808273ec       0x9c fs/built-in.o
                0x00000000808273ec                ext4fs_log_journal
 .text.ext4fs_put_metadata
                0x0000000080827488       0x8c fs/built-in.o
                0x0000000080827488                ext4fs_put_metadata
 .text.ext4fs_push_revoke_blk
                0x0000000080827514       0x90 fs/built-in.o
                0x0000000080827514                ext4fs_push_revoke_blk
 .text.ext4fs_free_revoke_blks
                0x00000000808275a4       0x3c fs/built-in.o
                0x00000000808275a4                ext4fs_free_revoke_blks
 .text.check_blknr_for_revoke
                0x00000000808275e0       0x3c fs/built-in.o
                0x00000000808275e0                check_blknr_for_revoke
 .text.recover_transaction
                0x000000008082761c       0xe8 fs/built-in.o
                0x000000008082761c                recover_transaction
 .text.print_jrnl_status
                0x0000000080827704       0x14 fs/built-in.o
                0x0000000080827704                print_jrnl_status
 .text.ext4fs_check_journal_state
                0x0000000080827718      0x1f4 fs/built-in.o
                0x0000000080827718                ext4fs_check_journal_state
 .text.ext4fs_init_journal
                0x000000008082790c      0x190 fs/built-in.o
                0x000000008082790c                ext4fs_init_journal
 .text.ext4fs_update_journal
                0x0000000080827a9c      0x21c fs/built-in.o
                0x0000000080827a9c                ext4fs_update_journal
 .text.ext2fs_crc16
                0x0000000080827cb8       0x24 fs/built-in.o
                0x0000000080827cb8                ext2fs_crc16
 .text.downcase
                0x0000000080827cdc       0x20 fs/built-in.o
 .text.disk_read
                0x0000000080827cfc       0x34 fs/built-in.o
 .text.mkcksum  0x0000000080827d30       0x36 fs/built-in.o
 *fill*         0x0000000080827d66        0x2 
 .text.disk_write
                0x0000000080827d68       0x50 fs/built-in.o
 .text.flush_dirty_fat_buffer
                0x0000000080827db8       0x60 fs/built-in.o
 .text.set_fatent_value
                0x0000000080827e18      0x138 fs/built-in.o
 .text.get_fatent
                0x0000000080827f50      0x100 fs/built-in.o
 .text.find_empty_cluster
                0x0000000080828050       0x18 fs/built-in.o
 .text.get_cluster
                0x0000000080828068       0xf4 fs/built-in.o
 .text.get_name
                0x000000008082815c       0x70 fs/built-in.o
 .text.set_cluster
                0x00000000808281cc       0xf8 fs/built-in.o
 .text.read_bootsectandvi
                0x00000000808282c4       0xb4 fs/built-in.o
 .text.set_name
                0x0000000080828378       0xcc fs/built-in.o
 .text.check_overflow
                0x0000000080828444       0x5c fs/built-in.o
 .text.slot2str
                0x00000000808284a0       0x64 fs/built-in.o
 .text.get_vfatname
                0x0000000080828504      0x114 fs/built-in.o
 .text.flush_dir_table.constprop.7
                0x0000000080828618       0x8c fs/built-in.o
 .text.do_fat_write
                0x00000000808286a4      0x814 fs/built-in.o
 .text.fat_set_blk_dev
                0x0000000080828eb8       0x8c fs/built-in.o
                0x0000000080828eb8                fat_set_blk_dev
 .text.do_fat_read_at
                0x0000000080828f44      0x8ac fs/built-in.o
                0x0000000080828f44                do_fat_read_at
 .text.do_fat_read
                0x00000000808297f0       0x22 fs/built-in.o
                0x00000000808297f0                do_fat_read
 *fill*         0x0000000080829812        0x2 
 .text.file_fat_detectfs
                0x0000000080829814       0xd4 fs/built-in.o
                0x0000000080829814                file_fat_detectfs
 .text.file_fat_ls
                0x00000000808298e8       0x1a fs/built-in.o
                0x00000000808298e8                file_fat_ls
 .text.fat_exists
                0x0000000080829902       0x2a fs/built-in.o
                0x0000000080829902                fat_exists
 .text.fat_size
                0x000000008082992c       0x22 fs/built-in.o
                0x000000008082992c                fat_size
 *fill*         0x000000008082994e        0x2 
 .text.file_fat_read_at
                0x0000000080829950       0x3c fs/built-in.o
                0x0000000080829950                file_fat_read_at
 .text.fat_read_file
                0x000000008082998c       0x30 fs/built-in.o
                0x000000008082998c                fat_read_file
 .text.fat_close
                0x00000000808299bc        0x2 fs/built-in.o
                0x00000000808299bc                fat_close
 *fill*         0x00000000808299be        0x2 
 .text.file_fat_write
                0x00000000808299c0       0x48 fs/built-in.o
                0x00000000808299c0                file_fat_write
 .text.efi_return_handle
                0x0000000080829a08        0x6 lib/built-in.o
                0x0000000080829a08                efi_return_handle
 *fill*         0x0000000080829a0e        0x2 
 .text.efi_load_pe
                0x0000000080829a10      0x1d4 lib/built-in.o
                0x0000000080829a10                efi_load_pe
 .text.efi_search.isra.0.part.1
                0x0000000080829be4       0x28 lib/built-in.o
 .text.efi_save_gd
                0x0000000080829c0c        0xc lib/built-in.o
                0x0000000080829c0c                efi_save_gd
 .text.efi_restore_gd
                0x0000000080829c18       0x1c lib/built-in.o
                0x0000000080829c18                efi_restore_gd
 .text.efi_set_mem
                0x0000000080829c34       0x16 lib/built-in.o
 .text.efi_copy_mem
                0x0000000080829c4a       0x16 lib/built-in.o
 .text.efi_exit
                0x0000000080829c60       0x1a lib/built-in.o
 *fill*         0x0000000080829c7a        0x2 
 .text.efi_allocate_pages_ext
                0x0000000080829c7c       0x24 lib/built-in.o
                0x0000000080829c7c                efi_allocate_pages_ext
 .text.efi_free_pages_ext
                0x0000000080829ca0       0x24 lib/built-in.o
                0x0000000080829ca0                efi_free_pages_ext
 .text.efi_get_memory_map_ext
                0x0000000080829cc4       0x28 lib/built-in.o
                0x0000000080829cc4                efi_get_memory_map_ext
 .text.efi_calculate_crc32
                0x0000000080829cec       0x24 lib/built-in.o
 .text.efi_uninstall_multiple_protocol_interfaces
                0x0000000080829d10       0x20 lib/built-in.o
 .text.efi_install_multiple_protocol_interfaces
                0x0000000080829d30       0x20 lib/built-in.o
 .text.efi_locate_protocol
                0x0000000080829d50       0x38 lib/built-in.o
 .text.efi_locate_handle_buffer
                0x0000000080829d88       0x18 lib/built-in.o
 .text.efi_close_protocol
                0x0000000080829da0       0x18 lib/built-in.o
 .text.efi_open_protocol
                0x0000000080829db8       0x70 lib/built-in.o
 .text.efi_handle_protocol
                0x0000000080829e28       0x12 lib/built-in.o
 *fill*         0x0000000080829e3a        0x2 
 .text.efi_disconnect_controller
                0x0000000080829e3c       0x18 lib/built-in.o
 .text.efi_connect_controller
                0x0000000080829e54       0x18 lib/built-in.o
 .text.efi_set_watchdog_timer
                0x0000000080829e6c       0x18 lib/built-in.o
 .text.efi_stall
                0x0000000080829e84       0x18 lib/built-in.o
 .text.efi_get_next_monotonic_count
                0x0000000080829e9c       0x2c lib/built-in.o
 .text.efi_exit_boot_services
                0x0000000080829ec8       0x30 lib/built-in.o
 .text.efi_unload_image
                0x0000000080829ef8       0x40 lib/built-in.o
 .text.efi_start_image
                0x0000000080829f38       0x50 lib/built-in.o
 .text.efi_load_image
                0x0000000080829f88       0x7c lib/built-in.o
 .text.efi_locate_handle
                0x000000008082a004       0x88 lib/built-in.o
 .text.efi_register_protocol_notify
                0x000000008082a08c       0x18 lib/built-in.o
 .text.efi_uninstall_protocol_interface
                0x000000008082a0a4       0x18 lib/built-in.o
 .text.efi_reinstall_protocol_interface
                0x000000008082a0bc       0x18 lib/built-in.o
 .text.efi_install_protocol_interface
                0x000000008082a0d4       0x18 lib/built-in.o
 .text.efi_check_event
                0x000000008082a0ec       0x18 lib/built-in.o
 .text.efi_close_event
                0x000000008082a104       0x28 lib/built-in.o
 .text.efi_signal_event
                0x000000008082a12c       0x14 lib/built-in.o
 .text.efi_set_timer
                0x000000008082a140       0x8c lib/built-in.o
 .text.efi_create_event
                0x000000008082a1cc       0x40 lib/built-in.o
 .text.efi_free_pool_ext
                0x000000008082a20c       0x18 lib/built-in.o
 .text.efi_allocate_pool_ext
                0x000000008082a224       0x20 lib/built-in.o
 .text.efi_restore_tpl
                0x000000008082a244       0x14 lib/built-in.o
 .text.efi_raise_tpl
                0x000000008082a258       0x14 lib/built-in.o
 .text.efi_open_protocol_information
                0x000000008082a26c       0x18 lib/built-in.o
 .text.efi_protocols_per_handle
                0x000000008082a284       0x18 lib/built-in.o
 .text.efi_locate_device_path
                0x000000008082a29c       0x18 lib/built-in.o
 .text.efi_exit_func
                0x000000008082a2b4        0xc lib/built-in.o
                0x000000008082a2b4                efi_exit_func
 .text.efi_timer_check
                0x000000008082a2c0       0x4c lib/built-in.o
                0x000000008082a2c0                efi_timer_check
 .text.efi_wait_for_event
                0x000000008082a30c       0x30 lib/built-in.o
 .text.efi_install_configuration_table
                0x000000008082a33c       0x64 lib/built-in.o
                0x000000008082a33c                efi_install_configuration_table
 .text.efi_install_configuration_table_ext
                0x000000008082a3a0       0x1c lib/built-in.o
 .text.efi_get_time_boottime
                0x000000008082a3bc        0x8 lib/built-in.o
 .text.efi_reset_system_boottime
                0x000000008082a3c4       0x1a lib/built-in.o
 .text.efi_reset_system_init
                0x000000008082a3de        0x2 lib/built-in.o
                0x000000008082a3de                efi_reset_system_init
 .text.efi_get_time_init
                0x000000008082a3e0        0x2 lib/built-in.o
                0x000000008082a3e0                efi_get_time_init
 *fill*         0x000000008082a3e2        0x2 
 .text.efi_runtime_relocate
                0x000000008082a3e4       0xd0 lib/built-in.o
                0x000000008082a3e4                efi_runtime_relocate
 .text.efi_set_virtual_address_map
                0x000000008082a4b4       0xe8 lib/built-in.o
 .text.efi_cin_lock_std_in
                0x000000008082a59c       0x14 lib/built-in.o
 .text.efi_cin_set_mode
                0x000000008082a5b0       0x14 lib/built-in.o
 .text.efi_cin_get_mode
                0x000000008082a5c4       0x28 lib/built-in.o
 .text.efi_cout_set_attribute
                0x000000008082a5ec       0x14 lib/built-in.o
 .text.efi_cout_test_string
                0x000000008082a600       0x10 lib/built-in.o
 .text.efi_cout_reset
                0x000000008082a610       0x14 lib/built-in.o
 .text.efi_cin_reset
                0x000000008082a624       0x14 lib/built-in.o
 .text.efi_cout_enable_cursor
                0x000000008082a638       0x24 lib/built-in.o
 .text.efi_cout_set_cursor_position
                0x000000008082a65c       0x2c lib/built-in.o
 .text.efi_cout_clear_screen
                0x000000008082a688       0x1c lib/built-in.o
 .text.efi_cout_output_string
                0x000000008082a6a4       0xbc lib/built-in.o
 .text.efi_cout_set_mode
                0x000000008082a760       0x2c lib/built-in.o
 .text.efi_cin_read_key_stroke
                0x000000008082a78c       0xc0 lib/built-in.o
 .text.efi_cout_query_mode
                0x000000008082a84c      0x148 lib/built-in.o
 .text.efi_mem_cmp
                0x000000008082a994       0x20 lib/built-in.o
 .text.efi_find_free_memory
                0x000000008082a9b4       0x80 lib/built-in.o
 .text.efi_add_memory_map
                0x000000008082aa34      0x234 lib/built-in.o
                0x000000008082aa34                efi_add_memory_map
 .text.efi_allocate_pages
                0x000000008082ac68       0x7c lib/built-in.o
                0x000000008082ac68                efi_allocate_pages
 .text.efi_alloc
                0x000000008082ace4       0x36 lib/built-in.o
                0x000000008082ace4                efi_alloc
 *fill*         0x000000008082ad1a        0x2 
 .text.efi_free_pages
                0x000000008082ad1c       0x28 lib/built-in.o
                0x000000008082ad1c                efi_free_pages
 .text.efi_allocate_pool
                0x000000008082ad44       0x34 lib/built-in.o
                0x000000008082ad44                efi_allocate_pool
 .text.efi_free_pool
                0x000000008082ad78        0xc lib/built-in.o
                0x000000008082ad78                efi_free_pool
 .text.efi_get_memory_map
                0x000000008082ad84       0x70 lib/built-in.o
                0x000000008082ad84                efi_get_memory_map
 .text.efi_memory_init
                0x000000008082adf4       0x8c lib/built-in.o
                0x000000008082adf4                efi_memory_init
 .text.efi_disk_open_block
                0x000000008082ae80        0x8 lib/built-in.o
 .text.efi_disk_open_dp
                0x000000008082ae88        0x8 lib/built-in.o
 .text.efi_disk_flush_blocks
                0x000000008082ae90       0x10 lib/built-in.o
 .text.efi_disk_reset
                0x000000008082aea0       0x14 lib/built-in.o
 .text.efi_disk_add_dev.part.0
                0x000000008082aeb4       0xdc lib/built-in.o
 .text.efi_disk_read_blocks
                0x000000008082af90       0x60 lib/built-in.o
 .text.efi_disk_write_blocks
                0x000000008082aff0       0x60 lib/built-in.o
 .text.efi_disk_register
                0x000000008082b050       0xe0 lib/built-in.o
                0x000000008082b050                efi_disk_register
 .text.efi_net_push
                0x000000008082b130        0xc lib/built-in.o
 .text.efi_net_open_dp
                0x000000008082b13c        0xa lib/built-in.o
 .text.efi_net_open_pxe
                0x000000008082b146        0xa lib/built-in.o
 .text.efi_net_get_status
                0x000000008082b150       0x28 lib/built-in.o
 .text.efi_net_nvdata
                0x000000008082b178       0x14 lib/built-in.o
 .text.efi_net_statistics
                0x000000008082b18c       0x14 lib/built-in.o
 .text.efi_net_station_address
                0x000000008082b1a0       0x14 lib/built-in.o
 .text.efi_net_receive_filters
                0x000000008082b1b4       0x10 lib/built-in.o
 .text.efi_net_reset
                0x000000008082b1c4       0x10 lib/built-in.o
 .text.efi_net_start
                0x000000008082b1d4       0x10 lib/built-in.o
 .text.efi_net_stop
                0x000000008082b1e4        0x4 lib/built-in.o
 .text.efi_net_shutdown
                0x000000008082b1e8        0x4 lib/built-in.o
 .text.efi_net_initialize
                0x000000008082b1ec       0x14 lib/built-in.o
 .text.efi_net_receive
                0x000000008082b200       0x6c lib/built-in.o
 .text.efi_net_transmit
                0x000000008082b26c       0x30 lib/built-in.o
 .text.efi_net_mcastiptomac
                0x000000008082b29c       0x14 lib/built-in.o
 .text.efi_net_set_dhcp_ack
                0x000000008082b2b0       0x34 lib/built-in.o
                0x000000008082b2b0                efi_net_set_dhcp_ack
 .text.efi_net_register
                0x000000008082b2e4      0x17c lib/built-in.o
                0x000000008082b2e4                efi_net_register
 .text.efi_smbios_register
                0x000000008082b460       0x34 lib/built-in.o
                0x000000008082b460                efi_smbios_register
 .text.lzo1x_decompress_safe
                0x000000008082b494      0x438 lib/built-in.o
                0x000000008082b494                lzo1x_decompress_safe
 .text.lzop_decompress
                0x000000008082b8cc      0x108 lib/built-in.o
                0x000000008082b8cc                lzop_decompress
 .text.zcalloc  0x000000008082b9d4        0x8 lib/built-in.o
                0x000000008082b9d4                zcalloc
 .text.zcfree   0x000000008082b9dc        0x6 lib/built-in.o
                0x000000008082b9dc                zcfree
 *fill*         0x000000008082b9e2        0x2 
 .text.inflate_fast
                0x000000008082b9e4      0x3c4 lib/built-in.o
                0x000000008082b9e4                inflate_fast
 .text.inflate_table
                0x000000008082bda8      0x318 lib/built-in.o
                0x000000008082bda8                inflate_table
 .text.inflateReset
                0x000000008082c0c0       0x46 lib/built-in.o
                0x000000008082c0c0                inflateReset
 *fill*         0x000000008082c106        0x2 
 .text.inflateInit2_
                0x000000008082c108       0x98 lib/built-in.o
                0x000000008082c108                inflateInit2_
 .text.inflateEnd
                0x000000008082c1a0       0x36 lib/built-in.o
                0x000000008082c1a0                inflateEnd
 .text.adler32  0x000000008082c1d6      0x224 lib/built-in.o
                0x000000008082c1d6                adler32
 *fill*         0x000000008082c3fa        0x2 
 .text.inflate  0x000000008082c3fc      0xd30 lib/built-in.o
                0x000000008082c3fc                inflate
 .text.fdt_check_header
                0x000000008082d12c       0x4c lib/built-in.o
                0x000000008082d12c                fdt_check_header
 .text.fdt_offset_ptr
                0x000000008082d178       0x32 lib/built-in.o
                0x000000008082d178                fdt_offset_ptr
 *fill*         0x000000008082d1aa        0x2 
 .text.fdt_next_tag
                0x000000008082d1ac       0xa8 lib/built-in.o
                0x000000008082d1ac                fdt_next_tag
 .text._fdt_check_node_offset
                0x000000008082d254       0x24 lib/built-in.o
                0x000000008082d254                _fdt_check_node_offset
 .text._fdt_check_prop_offset
                0x000000008082d278       0x24 lib/built-in.o
                0x000000008082d278                _fdt_check_prop_offset
 .text.fdt_next_node
                0x000000008082d29c       0x6e lib/built-in.o
                0x000000008082d29c                fdt_next_node
 .text.fdt_first_subnode
                0x000000008082d30a       0x26 lib/built-in.o
                0x000000008082d30a                fdt_first_subnode
 .text.fdt_next_subnode
                0x000000008082d330       0x2a lib/built-in.o
                0x000000008082d330                fdt_next_subnode
 .text._fdt_find_string
                0x000000008082d35a       0x30 lib/built-in.o
                0x000000008082d35a                _fdt_find_string
 .text.fdt_move
                0x000000008082d38a       0x2a lib/built-in.o
                0x000000008082d38a                fdt_move
 .text.fdt_path_next_separator
                0x000000008082d3b4       0x2a lib/built-in.o
 .text._nextprop.part.0
                0x000000008082d3de       0x32 lib/built-in.o
 .text.fdt_string
                0x000000008082d410        0xa lib/built-in.o
                0x000000008082d410                fdt_string
 .text.fdt_get_mem_rsv
                0x000000008082d41a       0x38 lib/built-in.o
                0x000000008082d41a                fdt_get_mem_rsv
 .text.fdt_num_mem_rsv
                0x000000008082d452       0x20 lib/built-in.o
                0x000000008082d452                fdt_num_mem_rsv
 .text.fdt_subnode_offset_namelen
                0x000000008082d472       0x88 lib/built-in.o
                0x000000008082d472                fdt_subnode_offset_namelen
 .text.fdt_subnode_offset
                0x000000008082d4fa       0x1e lib/built-in.o
                0x000000008082d4fa                fdt_subnode_offset
 .text.fdt_get_name
                0x000000008082d518       0x3e lib/built-in.o
                0x000000008082d518                fdt_get_name
 .text.fdt_first_property_offset
                0x000000008082d556       0x18 lib/built-in.o
                0x000000008082d556                fdt_first_property_offset
 .text.fdt_next_property_offset
                0x000000008082d56e       0x18 lib/built-in.o
                0x000000008082d56e                fdt_next_property_offset
 .text.fdt_get_property_by_offset
                0x000000008082d586       0x30 lib/built-in.o
                0x000000008082d586                fdt_get_property_by_offset
 .text.fdt_get_property_namelen
                0x000000008082d5b6       0x74 lib/built-in.o
                0x000000008082d5b6                fdt_get_property_namelen
 .text.fdt_get_property
                0x000000008082d62a       0x22 lib/built-in.o
                0x000000008082d62a                fdt_get_property
 .text.fdt_getprop_namelen
                0x000000008082d64c       0x12 lib/built-in.o
                0x000000008082d64c                fdt_getprop_namelen
 .text.fdt_getprop_by_offset
                0x000000008082d65e       0x24 lib/built-in.o
                0x000000008082d65e                fdt_getprop_by_offset
 .text.fdt_getprop
                0x000000008082d682       0x22 lib/built-in.o
                0x000000008082d682                fdt_getprop
 .text.fdt_get_alias_namelen
                0x000000008082d6a4       0x2c lib/built-in.o
                0x000000008082d6a4                fdt_get_alias_namelen
 .text.fdt_path_offset_namelen
                0x000000008082d6d0       0x86 lib/built-in.o
                0x000000008082d6d0                fdt_path_offset_namelen
 .text.fdt_path_offset
                0x000000008082d756       0x1a lib/built-in.o
                0x000000008082d756                fdt_path_offset
 .text.fdt_supernode_atdepth_offset
                0x000000008082d770       0x68 lib/built-in.o
                0x000000008082d770                fdt_supernode_atdepth_offset
 .text.fdt_node_depth
                0x000000008082d7d8       0x1e lib/built-in.o
                0x000000008082d7d8                fdt_node_depth
 .text.fdt_stringlist_get
                0x000000008082d7f6       0x60 lib/built-in.o
                0x000000008082d7f6                fdt_stringlist_get
 .text._fdt_blocks_misordered
                0x000000008082d856       0x36 lib/built-in.o
 .text._fdt_splice
                0x000000008082d88c       0x4a lib/built-in.o
 .text._fdt_splice_mem_rsv
                0x000000008082d8d6       0x2c lib/built-in.o
 .text._fdt_splice_struct
                0x000000008082d902       0x26 lib/built-in.o
 .text._fdt_packblocks
                0x000000008082d928       0x5c lib/built-in.o
 .text._fdt_find_add_string
                0x000000008082d984       0x5e lib/built-in.o
 .text._fdt_add_property
                0x000000008082d9e2       0x5a lib/built-in.o
 .text._fdt_rw_check_header
                0x000000008082da3c       0x38 lib/built-in.o
 .text.fdt_add_mem_rsv
                0x000000008082da74       0x56 lib/built-in.o
                0x000000008082da74                fdt_add_mem_rsv
 .text.fdt_del_mem_rsv
                0x000000008082daca       0x3c lib/built-in.o
                0x000000008082daca                fdt_del_mem_rsv
 .text.fdt_setprop
                0x000000008082db06       0x7e lib/built-in.o
                0x000000008082db06                fdt_setprop
 .text.fdt_delprop
                0x000000008082db84       0x3e lib/built-in.o
                0x000000008082db84                fdt_delprop
 .text.fdt_add_subnode_namelen
                0x000000008082dbc2       0x98 lib/built-in.o
                0x000000008082dbc2                fdt_add_subnode_namelen
 .text.fdt_add_subnode
                0x000000008082dc5a       0x1e lib/built-in.o
                0x000000008082dc5a                fdt_add_subnode
 .text.fdt_del_node
                0x000000008082dc78       0x30 lib/built-in.o
                0x000000008082dc78                fdt_del_node
 .text.fdt_open_into
                0x000000008082dca8       0xe8 lib/built-in.o
                0x000000008082dca8                fdt_open_into
 .text.fdt_strerror
                0x000000008082dd90       0x3c lib/built-in.o
                0x000000008082dd90                fdt_strerror
 .text._fdt_node_end_offset
                0x000000008082ddcc       0x24 lib/built-in.o
                0x000000008082ddcc                _fdt_node_end_offset
 .text.fdt_address_cells
                0x000000008082ddf0       0x34 lib/built-in.o
                0x000000008082ddf0                fdt_address_cells
 .text.fdt_size_cells
                0x000000008082de24       0x34 lib/built-in.o
                0x000000008082de24                fdt_size_cells
 .text.crc16_ccitt
                0x000000008082de58       0x24 lib/built-in.o
                0x000000008082de58                crc16_ccitt
 .text.gzalloc  0x000000008082de7c        0xe lib/built-in.o
                0x000000008082de7c                gzalloc
 .text.gzfree   0x000000008082de8a        0x6 lib/built-in.o
                0x000000008082de8a                gzfree
 .text.zunzip   0x000000008082de90       0xa8 lib/built-in.o
                0x000000008082de90                zunzip
 .text.gunzip   0x000000008082df38       0x80 lib/built-in.o
                0x000000008082df38                gunzip
 .text.smbios_write_type127
                0x000000008082dfb8       0x2c lib/built-in.o
 .text.smbios_write_type32
                0x000000008082dfe4       0x2c lib/built-in.o
 .text.smbios_string_table_len
                0x000000008082e010       0x1c lib/built-in.o
 .text.smbios_add_string
                0x000000008082e02c       0x3a lib/built-in.o
 *fill*         0x000000008082e066        0x2 
 .text.smbios_write_type3
                0x000000008082e068       0x50 lib/built-in.o
 .text.smbios_write_type2
                0x000000008082e0b8       0x5c lib/built-in.o
 .text.smbios_write_type0
                0x000000008082e114       0x90 lib/built-in.o
 .text.smbios_write_type1
                0x000000008082e1a4       0x78 lib/built-in.o
 .text.smbios_write_type4
                0x000000008082e21c       0x80 lib/built-in.o
 .text.write_smbios_table
                0x000000008082e29c       0xb0 lib/built-in.o
                0x000000008082e29c                write_smbios_table
 .text.initcall_run_list
                0x000000008082e34c       0x40 lib/built-in.o
                0x000000008082e34c                initcall_run_list
 .text.lmb_add_region
                0x000000008082e38c       0xf0 lib/built-in.o
 .text.lmb_init
                0x000000008082e47c       0x16 lib/built-in.o
                0x000000008082e47c                lmb_init
 .text.lmb_add  0x000000008082e492        0x4 lib/built-in.o
                0x000000008082e492                lmb_add
 .text.lmb_free
                0x000000008082e496       0x7a lib/built-in.o
                0x000000008082e496                lmb_free
 .text.lmb_reserve
                0x000000008082e510        0x6 lib/built-in.o
                0x000000008082e510                lmb_reserve
 .text.__lmb_alloc_base
                0x000000008082e516       0xb8 lib/built-in.o
                0x000000008082e516                __lmb_alloc_base
 *fill*         0x000000008082e5ce        0x2 
 .text.lmb_alloc_base
                0x000000008082e5d0       0x20 lib/built-in.o
                0x000000008082e5d0                lmb_alloc_base
 .text.lmb_alloc
                0x000000008082e5f0        0x6 lib/built-in.o
                0x000000008082e5f0                lmb_alloc
 .text.board_lmb_reserve
                0x000000008082e5f6        0x2 lib/built-in.o
                0x000000008082e5f6                board_lmb_reserve
 .text.MD5Transform
                0x000000008082e5f8      0x6a0 lib/built-in.o
 .text.MD5Update
                0x000000008082ec98       0x88 lib/built-in.o
 .text.MD5Final
                0x000000008082ed20       0x6a lib/built-in.o
 *fill*         0x000000008082ed8a        0x2 
 .text.md5_wd   0x000000008082ed8c       0x64 lib/built-in.o
                0x000000008082ed8c                md5_wd
 .text.string_to_ip
                0x000000008082edf0       0x36 lib/built-in.o
                0x000000008082edf0                string_to_ip
 *fill*         0x000000008082ee26        0x2 
 .text.qsort    0x000000008082ee28       0x94 lib/built-in.o
                0x000000008082ee28                qsort
 .text.strcmp_compar
                0x000000008082eebc        0x8 lib/built-in.o
                0x000000008082eebc                strcmp_compar
 .text.merge    0x000000008082eec4       0x36 lib/built-in.o
 *fill*         0x000000008082eefa        0x2 
 .text.list_sort
                0x000000008082eefc       0xec lib/built-in.o
                0x000000008082eefc                list_sort
 .text.sha1_process
                0x000000008082efe8      0xf0c lib/built-in.o
 .text.sha1_update.part.0
                0x000000008082fef4       0x82 lib/built-in.o
 *fill*         0x000000008082ff76        0x2 
 .text.sha1_starts
                0x000000008082ff78       0x34 lib/built-in.o
                0x000000008082ff78                sha1_starts
 .text.sha1_update
                0x000000008082ffac        0x8 lib/built-in.o
                0x000000008082ffac                sha1_update
 .text.sha1_finish
                0x000000008082ffb4       0x9c lib/built-in.o
                0x000000008082ffb4                sha1_finish
 .text.sha1_csum_wd
                0x0000000080830050       0x40 lib/built-in.o
                0x0000000080830050                sha1_csum_wd
 .text.sha256_process
                0x0000000080830090     0x1c74 lib/built-in.o
 .text.sha256_update.part.0
                0x0000000080831d04       0x82 lib/built-in.o
 *fill*         0x0000000080831d86        0x2 
 .text.sha256_starts
                0x0000000080831d88       0x50 lib/built-in.o
                0x0000000080831d88                sha256_starts
 .text.sha256_update
                0x0000000080831dd8        0x8 lib/built-in.o
                0x0000000080831dd8                sha256_update
 .text.sha256_finish
                0x0000000080831de0       0xd8 lib/built-in.o
                0x0000000080831de0                sha256_finish
 .text.sha256_csum_wd
                0x0000000080831eb8       0x40 lib/built-in.o
                0x0000000080831eb8                sha256_csum_wd
 .text.cmpkey   0x0000000080831ef8        0xc lib/built-in.o
 .text._hdelete.isra.0
                0x0000000080831f04       0x2e lib/built-in.o
 .text.drop_var_from_set.part.1
                0x0000000080831f32       0x30 lib/built-in.o
 *fill*         0x0000000080831f62        0x2 
 .text.match_string
                0x0000000080831f64       0x7c lib/built-in.o
 .text.match_entry
                0x0000000080831fe0       0x7c lib/built-in.o
 .text.hcreate_r
                0x000000008083205c       0x58 lib/built-in.o
                0x000000008083205c                hcreate_r
 .text.hdestroy_r
                0x00000000808320b4       0x44 lib/built-in.o
                0x00000000808320b4                hdestroy_r
 .text.hmatch_r
                0x00000000808320f8       0x5c lib/built-in.o
                0x00000000808320f8                hmatch_r
 .text.hsearch_r
                0x0000000080832154      0x2a4 lib/built-in.o
                0x0000000080832154                hsearch_r
 .text.hdelete_r
                0x00000000808323f8       0x88 lib/built-in.o
                0x00000000808323f8                hdelete_r
 .text.hexport_r
                0x0000000080832480      0x1a8 lib/built-in.o
                0x0000000080832480                hexport_r
 .text.himport_r
                0x0000000080832628      0x24c lib/built-in.o
                0x0000000080832628                himport_r
 .text.hwalk_r  0x0000000080832874       0x30 lib/built-in.o
                0x0000000080832874                hwalk_r
 .text.display_options
                0x00000000808328a4       0x18 lib/built-in.o
                0x00000000808328a4                display_options
 .text.print_size
                0x00000000808328bc      0x11c lib/built-in.o
                0x00000000808328bc                print_size
 .text.print_buffer
                0x00000000808329d8      0x118 lib/built-in.o
                0x00000000808329d8                print_buffer
 .text.crc32_no_comp
                0x0000000080832af0       0x90 lib/built-in.o
                0x0000000080832af0                crc32_no_comp
 .text.crc32    0x0000000080832b80        0xc lib/built-in.o
                0x0000000080832b80                crc32
 .text.crc32_wd
                0x0000000080832b8c       0x32 lib/built-in.o
                0x0000000080832b8c                crc32_wd
 .text.crc32_wd_buf
                0x0000000080832bbe       0x22 lib/built-in.o
                0x0000000080832bbe                crc32_wd_buf
 .text.__div64_32
                0x0000000080832be0       0x8c lib/built-in.o
                0x0000000080832be0                __div64_32
 .text.hang     0x0000000080832c6c       0x18 lib/built-in.o
                0x0000000080832c6c                hang
 .text.kmalloc  0x0000000080832c84       0x20 lib/built-in.o
                0x0000000080832c84                kmalloc
 .text.skip_spaces
                0x0000000080832ca4       0x18 lib/built-in.o
                0x0000000080832ca4                skip_spaces
 .text.strim    0x0000000080832cbc       0x34 lib/built-in.o
                0x0000000080832cbc                strim
 .text.emit     0x0000000080832cf0       0x20 lib/built-in.o
 .text.store_char_in_data
                0x0000000080832d10       0x24 lib/built-in.o
 .text.get_escape_char
                0x0000000080832d34       0x4a lib/built-in.o
 .text.relocate
                0x0000000080832d7e       0x2a lib/built-in.o
 .text.match    0x0000000080832da8      0x260 lib/built-in.o
 .text.loop_greedy
                0x0000000080833008       0x56 lib/built-in.o
 .text.loop_non_greedy
                0x000000008083305e       0x4c lib/built-in.o
 *fill*         0x00000000808330aa        0x2 
 .text.quantifier
                0x00000000808330ac       0x5c lib/built-in.o
 .text.fixup_branch
                0x0000000080833108       0x28 lib/built-in.o
 .text.compile  0x0000000080833130      0x218 lib/built-in.o
 .text.slre_compile
                0x0000000080833348       0x8c lib/built-in.o
                0x0000000080833348                slre_compile
 .text.slre_match
                0x00000000808333d4       0x5c lib/built-in.o
                0x00000000808333d4                slre_match
 .text.strncasecmp
                0x0000000080833430       0x44 lib/built-in.o
                0x0000000080833430                strncasecmp
 .text.strcasecmp
                0x0000000080833474        0x8 lib/built-in.o
                0x0000000080833474                strcasecmp
 .text.strcpy   0x000000008083347c       0x10 lib/built-in.o
                0x000000008083347c                strcpy
 .text.strncpy  0x000000008083348c       0x18 lib/built-in.o
                0x000000008083348c                strncpy
 .text.strcat   0x00000000808334a4       0x20 lib/built-in.o
                0x00000000808334a4                strcat
 .text.strncat  0x00000000808334c4       0x2a lib/built-in.o
                0x00000000808334c4                strncat
 .text.strcmp   0x00000000808334ee       0x16 lib/built-in.o
                0x00000000808334ee                strcmp
 .text.strncmp  0x0000000080833504       0x22 lib/built-in.o
                0x0000000080833504                strncmp
 .text.strchr   0x0000000080833526       0x18 lib/built-in.o
                0x0000000080833526                strchr
 .text.strlen   0x000000008083353e       0x10 lib/built-in.o
                0x000000008083353e                strlen
 .text.strlcpy  0x000000008083354e       0x2e lib/built-in.o
                0x000000008083354e                strlcpy
 .text.strrchr  0x000000008083357c       0x20 lib/built-in.o
                0x000000008083357c                strrchr
 .text.strnlen  0x000000008083359c       0x18 lib/built-in.o
                0x000000008083359c                strnlen
 .text.strdup   0x00000000808335b4       0x22 lib/built-in.o
                0x00000000808335b4                strdup
 .text.strspn   0x00000000808335d6       0x20 lib/built-in.o
                0x00000000808335d6                strspn
 .text.strpbrk  0x00000000808335f6       0x22 lib/built-in.o
                0x00000000808335f6                strpbrk
 .text.strtok   0x0000000080833618       0x40 lib/built-in.o
                0x0000000080833618                strtok
 .text.strsep   0x0000000080833658       0x1c lib/built-in.o
                0x0000000080833658                strsep
 .text.memmove  0x0000000080833674       0x30 lib/built-in.o
                0x0000000080833674                memmove
 .text.memcmp   0x00000000808336a4       0x1a lib/built-in.o
                0x00000000808336a4                memcmp
 .text.strstr   0x00000000808336be       0x40 lib/built-in.o
                0x00000000808336be                strstr
 .text.memchr   0x00000000808336fe       0x1c lib/built-in.o
                0x00000000808336fe                memchr
 .text.tick_to_time
                0x000000008083371a       0x48 lib/built-in.o
 .text.timer_get_us
                0x0000000080833762       0x1c lib/built-in.o
                0x0000000080833762                timer_get_us
 *fill*         0x000000008083377e        0x2 
 .text.udelay   0x0000000080833780       0x24 lib/built-in.o
                0x0000000080833780                udelay
 .text.mdelay   0x00000000808337a4       0x16 lib/built-in.o
                0x00000000808337a4                mdelay
 *fill*         0x00000000808337ba        0x2 
 .text.uuid_str_valid
                0x00000000808337bc       0x50 lib/built-in.o
                0x00000000808337bc                uuid_str_valid
 .text.uuid_str_to_bin
                0x000000008083380c      0x12c lib/built-in.o
                0x000000008083380c                uuid_str_to_bin
 .text.uuid_bin_to_str
                0x0000000080833938       0x78 lib/built-in.o
                0x0000000080833938                uuid_bin_to_str
 .text.put_dec_trunc
                0x00000000808339b0       0x96 lib/built-in.o
 *fill*         0x0000000080833a46        0x2 
 .text.string   0x0000000080833a48       0x74 lib/built-in.o
 .text.put_dec  0x0000000080833abc       0xdc lib/built-in.o
 .text.number   0x0000000080833b98      0x208 lib/built-in.o
 .text.vsnprintf_internal
                0x0000000080833da0      0x494 lib/built-in.o
 .text.vscnprintf
                0x0000000080834234       0x16 lib/built-in.o
                0x0000000080834234                vscnprintf
 .text.snprintf
                0x000000008083424a       0x1a lib/built-in.o
                0x000000008083424a                snprintf
 .text.vsprintf
                0x0000000080834264        0xc lib/built-in.o
                0x0000000080834264                vsprintf
 .text.sprintf  0x0000000080834270       0x1a lib/built-in.o
                0x0000000080834270                sprintf
 .text.printf   0x000000008083428a       0x32 lib/built-in.o
                0x000000008083428a                printf
 .text.vprintf  0x00000000808342bc       0x24 lib/built-in.o
                0x00000000808342bc                vprintf
 .text.simple_itoa
                0x00000000808342e0       0x40 lib/built-in.o
                0x00000000808342e0                simple_itoa
 .text.str2off  0x0000000080834320       0x24 lib/built-in.o
                0x0000000080834320                str2off
 .text.panic_finish
                0x0000000080834344       0x20 lib/built-in.o
 .text.panic_str
                0x0000000080834364        0xa lib/built-in.o
                0x0000000080834364                panic_str
 .text.panic    0x000000008083436e       0x14 lib/built-in.o
                0x000000008083436e                panic
 *fill*         0x0000000080834382        0x2 
 .text.simple_strtoul
                0x0000000080834384       0x70 lib/built-in.o
                0x0000000080834384                simple_strtoul
 .text.strict_strtoul
                0x00000000808343f4       0x42 lib/built-in.o
                0x00000000808343f4                strict_strtoul
 .text.simple_strtol
                0x0000000080834436       0x1a lib/built-in.o
                0x0000000080834436                simple_strtol
 .text.ustrtoul
                0x0000000080834450       0x3c lib/built-in.o
                0x0000000080834450                ustrtoul
 .text.simple_strtoull
                0x000000008083448c       0x98 lib/built-in.o
                0x000000008083448c                simple_strtoull
 .text.ustrtoull
                0x0000000080834524       0x4e lib/built-in.o
                0x0000000080834524                ustrtoull
 *fill*         0x0000000080834572        0x2 
 .text.trailing_strtoln
                0x0000000080834574       0x48 lib/built-in.o
                0x0000000080834574                trailing_strtoln
 .text.trailing_strtol
                0x00000000808345bc        0x6 lib/built-in.o
                0x00000000808345bc                trailing_strtol
 .text.compute_ip_checksum
                0x00000000808345c2       0x42 net/built-in.o
                0x00000000808345c2                compute_ip_checksum
 .text.ip_checksum_ok
                0x0000000080834604       0x14 net/built-in.o
                0x0000000080834604                ip_checksum_ok
 .text.arp_init
                0x0000000080834618       0x38 net/built-in.o
                0x0000000080834618                arp_init
 .text.arp_raw_request
                0x0000000080834650       0x88 net/built-in.o
                0x0000000080834650                arp_raw_request
 .text.arp_request
                0x00000000808346d8       0x54 net/built-in.o
                0x00000000808346d8                arp_request
 .text.arp_timeout_check
                0x000000008083472c       0x58 net/built-in.o
                0x000000008083472c                arp_timeout_check
 .text.arp_receive
                0x0000000080834784      0x15c net/built-in.o
                0x0000000080834784                arp_receive
 .text.dhcp_extended
                0x00000000808348e0      0x198 net/built-in.o
 .text.dhcp_process_options
                0x0000000080834a78      0x158 net/built-in.o
 .text.dhcp_packet_process_options
                0x0000000080834bd0       0x5c net/built-in.o
 .text.dhcp_handler
                0x0000000080834c2c      0x284 net/built-in.o
 .text.bootp_reset
                0x0000000080834eb0       0x2c net/built-in.o
                0x0000000080834eb0                bootp_reset
 .text.bootp_request
                0x0000000080834edc      0x1d4 net/built-in.o
                0x0000000080834edc                bootp_request
 .text.bootp_timeout_handler
                0x00000000808350b0       0x58 net/built-in.o
 .text.dhcp_request
                0x0000000080835108        0x4 net/built-in.o
                0x0000000080835108                dhcp_request
 .text.__def_eth_init
                0x000000008083510c        0x6 net/built-in.o
                0x000000008083510c                cpu_eth_init
 *fill*         0x0000000080835112        0x2 
 .text.eth_set_current_to_next
                0x0000000080835114       0x10 net/built-in.o
                0x0000000080835114                eth_set_current_to_next
 .text.eth_set_dev
                0x0000000080835124        0xc net/built-in.o
                0x0000000080835124                eth_set_dev
 .text.eth_get_dev_by_name
                0x0000000080835130       0x4c net/built-in.o
                0x0000000080835130                eth_get_dev_by_name
 .text.eth_get_dev_by_index
                0x000000008083517c       0x20 net/built-in.o
                0x000000008083517c                eth_get_dev_by_index
 .text.eth_get_dev_index
                0x000000008083519c       0x14 net/built-in.o
                0x000000008083519c                eth_get_dev_index
 .text.eth_write_hwaddr
                0x00000000808351b0      0x124 net/built-in.o
                0x00000000808351b0                eth_write_hwaddr
 .text.on_ethaddr
                0x00000000808352d4       0x68 net/built-in.o
 .text.eth_register
                0x000000008083533c       0x48 net/built-in.o
                0x000000008083533c                eth_register
 .text.eth_unregister
                0x0000000080835384       0x50 net/built-in.o
                0x0000000080835384                eth_unregister
 .text.eth_initialize
                0x00000000808353d4      0x110 net/built-in.o
                0x00000000808353d4                eth_initialize
 .text.eth_init
                0x00000000808354e4       0x48 net/built-in.o
                0x00000000808354e4                eth_init
 .text.eth_halt
                0x000000008083552c       0x18 net/built-in.o
                0x000000008083552c                eth_halt
 .text.eth_send
                0x0000000080835544       0x24 net/built-in.o
                0x0000000080835544                eth_send
 .text.eth_rx   0x0000000080835568       0x14 net/built-in.o
                0x0000000080835568                eth_rx
 .text.eth_parse_enetaddr
                0x000000008083557c       0x30 net/built-in.o
                0x000000008083557c                eth_parse_enetaddr
 .text.eth_getenv_enetaddr
                0x00000000808355ac       0x34 net/built-in.o
                0x00000000808355ac                eth_getenv_enetaddr
 .text.eth_setenv_enetaddr
                0x00000000808355e0       0x20 net/built-in.o
                0x00000000808355e0                eth_setenv_enetaddr
 .text.eth_getenv_enetaddr_by_index
                0x0000000080835600       0x2c net/built-in.o
                0x0000000080835600                eth_getenv_enetaddr_by_index
 .text.eth_setenv_enetaddr_by_index
                0x000000008083562c       0x2c net/built-in.o
                0x000000008083562c                eth_setenv_enetaddr_by_index
 .text.eth_common_init
                0x0000000080835658       0x14 net/built-in.o
                0x0000000080835658                eth_common_init
 .text.eth_mac_skip
                0x000000008083566c       0x2c net/built-in.o
                0x000000008083566c                eth_mac_skip
 .text.eth_get_name
                0x0000000080835698       0x18 net/built-in.o
                0x0000000080835698                eth_get_name
 .text.eth_current_changed
                0x00000000808356b0       0x5c net/built-in.o
                0x00000000808356b0                eth_current_changed
 .text.eth_try_another
                0x000000008083570c       0x54 net/built-in.o
                0x000000008083570c                eth_try_another
 .text.eth_set_current
                0x0000000080835760       0x58 net/built-in.o
                0x0000000080835760                eth_set_current
 .text.net_clear_handlers
                0x00000000808357b8       0x24 net/built-in.o
 .text.start_again_timeout_handler
                0x00000000808357dc        0xc net/built-in.o
 .text.dummy_handler
                0x00000000808357e8        0x2 net/built-in.o
 *fill*         0x00000000808357ea        0x2 
 .text.on_ipaddr
                0x00000000808357ec       0x18 net/built-in.o
 .text.on_gatewayip
                0x0000000080835804       0x18 net/built-in.o
 .text.on_netmask
                0x000000008083581c       0x18 net/built-in.o
 .text.on_serverip
                0x0000000080835834       0x18 net/built-in.o
 .text.net_init_loop
                0x000000008083584c       0x1c net/built-in.o
 .text.net_auto_load
                0x0000000080835868       0x40 net/built-in.o
                0x0000000080835868                net_auto_load
 .text.net_init
                0x00000000808358a8       0x50 net/built-in.o
                0x00000000808358a8                net_init
 .text.net_start_again
                0x00000000808358f8       0xec net/built-in.o
                0x00000000808358f8                net_start_again
 .text.net_loop
                0x00000000808359e4      0x25c net/built-in.o
                0x00000000808359e4                net_loop
 .text.net_set_udp_handler
                0x0000000080835c40       0x18 net/built-in.o
                0x0000000080835c40                net_set_udp_handler
 .text.net_get_arp_handler
                0x0000000080835c58        0xc net/built-in.o
                0x0000000080835c58                net_get_arp_handler
 .text.net_set_timeout_handler
                0x0000000080835c64       0x3c net/built-in.o
                0x0000000080835c64                net_set_timeout_handler
 .text.net_process_received_packet
                0x0000000080835ca0      0x1cc net/built-in.o
                0x0000000080835ca0                net_process_received_packet
 .text.net_eth_hdr_size
                0x0000000080835e6c       0x30 net/built-in.o
                0x0000000080835e6c                net_eth_hdr_size
 .text.net_set_ether
                0x0000000080835e9c       0x68 net/built-in.o
                0x0000000080835e9c                net_set_ether
 .text.net_update_ether
                0x0000000080835f04       0x58 net/built-in.o
                0x0000000080835f04                net_update_ether
 .text.net_set_ip_header
                0x0000000080835f5c       0x60 net/built-in.o
                0x0000000080835f5c                net_set_ip_header
 .text.net_set_udp_header
                0x0000000080835fbc       0x50 net/built-in.o
                0x0000000080835fbc                net_set_udp_header
 .text.net_send_udp_packet
                0x000000008083600c       0xb4 net/built-in.o
                0x000000008083600c                net_send_udp_packet
 .text.copy_filename
                0x00000000808360c0       0x2a net/built-in.o
                0x00000000808360c0                copy_filename
 *fill*         0x00000000808360ea        0x2 
 .text.on_bootfile
                0x00000000808360ec       0x20 net/built-in.o
 .text.ip_to_string
                0x000000008083610c       0x28 net/built-in.o
                0x000000008083610c                ip_to_string
 .text.string_to_vlan
                0x0000000080836134       0x28 net/built-in.o
                0x0000000080836134                string_to_vlan
 .text.on_nvlan
                0x000000008083615c       0x18 net/built-in.o
 .text.on_vlan  0x0000000080836174       0x18 net/built-in.o
 .text.rpc_lookup_reply
                0x000000008083618c       0x6c net/built-in.o
 .text.nfs_mount_reply
                0x00000000808361f8       0x64 net/built-in.o
 .text.nfs_umountall_reply
                0x000000008083625c       0x5c net/built-in.o
 .text.nfs_lookup_reply
                0x00000000808362b8       0xb0 net/built-in.o
 .text.nfs3_get_attributes_offset
                0x0000000080836368        0xc net/built-in.o
 .text.nfs_readlink_reply
                0x0000000080836374       0xac net/built-in.o
 .text.basename
                0x0000000080836420       0x20 net/built-in.o
 .text.rpc_req  0x0000000080836440       0xc8 net/built-in.o
 .text.nfs_read_req
                0x0000000080836508       0xa4 net/built-in.o
 .text.nfs_read_reply.isra.0
                0x00000000808365ac       0xe4 net/built-in.o
 .text.nfs_mount_req
                0x0000000080836690       0x88 net/built-in.o
 .text.nfs_readlink_req
                0x0000000080836718       0x84 net/built-in.o
 .text.nfs_umountall_req
                0x000000008083679c       0x54 net/built-in.o
 .text.nfs_lookup_req
                0x00000000808367f0      0x10c net/built-in.o
 .text.nfs_send
                0x00000000808368fc       0xd4 net/built-in.o
 .text.nfs_handler
                0x00000000808369d0      0x174 net/built-in.o
 .text.nfs_timeout_handler
                0x0000000080836b44       0x4c net/built-in.o
 .text.nfs_start
                0x0000000080836b90       0xfc net/built-in.o
                0x0000000080836b90                nfs_start
 .text.ping_timeout_handler
                0x0000000080836c8c       0x14 net/built-in.o
 .text.ping_start
                0x0000000080836ca0       0xc0 net/built-in.o
                0x0000000080836ca0                ping_start
 .text.ping_receive
                0x0000000080836d60       0x98 net/built-in.o
                0x0000000080836d60                ping_receive
 .text.tftp_send
                0x0000000080836df8      0x134 net/built-in.o
 .text.tftp_handler
                0x0000000080836f2c      0x274 net/built-in.o
 .text.tftp_timeout_handler
                0x00000000808371a0       0x64 net/built-in.o
 .text.tftp_start
                0x0000000080837204      0x278 net/built-in.o
                0x0000000080837204                tftp_start
 .text.do_dm_dump_devres
                0x000000008083747c        0x4 test/dm/built-in.o
 .text.do_dm    0x0000000080837480       0x44 test/dm/built-in.o
 .text.do_dm_dump_uclass
                0x00000000808374c4        0xa test/dm/built-in.o
 .text.do_dm_dump_all
                0x00000000808374ce        0xa test/dm/built-in.o
 .text.__udivsi3
                0x00000000808374d8       0x9c arch/arm/lib/lib.a(lib1funcs.o)
                0x00000000808374d8                __udivsi3
                0x00000000808374d8                __aeabi_uidiv
 .text.__divsi3
                0x0000000080837574       0xcc arch/arm/lib/lib.a(lib1funcs.o)
                0x0000000080837574                __aeabi_idiv
                0x0000000080837574                __divsi3
 .text.__aeabi_uidivmod
                0x0000000080837640       0x30 arch/arm/lib/lib.a(lib1funcs.o)
                0x0000000080837640                __aeabi_uidivmod
                0x0000000080837658                __aeabi_idivmod
 .text.Ldiv0    0x0000000080837670       0x10 arch/arm/lib/lib.a(lib1funcs.o)
 .text.__div0   0x0000000080837680        0x4 arch/arm/lib/lib.a(div0.o)
                0x0000000080837680                __div0
 *fill*         0x0000000080837684        0x4 
 .text.__div0.__stub
                0x0000000080837688        0x4 linker stubs

.glue_7         0x000000008083768c        0x0
 .glue_7        0x000000008083768c        0x0 linker stubs

.glue_7t        0x000000008083768c        0x0
 .glue_7t       0x000000008083768c        0x0 linker stubs

.vfp11_veneer   0x000000008083768c        0x0
 .vfp11_veneer  0x000000008083768c        0x0 linker stubs

.v4_bx          0x000000008083768c        0x0
 .v4_bx         0x000000008083768c        0x0 linker stubs

.iplt           0x000000008083768c        0x0
 .iplt          0x000000008083768c        0x0 arch/arm/cpu/armv7/start.o
                0x000000008083768c                . = ALIGN (0x4)

.rodata         0x0000000080837690    0x131b8
 *(SORT_BY_ALIGNMENT(SORT_BY_NAME(.rodata*)))
 .rodata.efi_boot_services
                0x0000000080837690       0xc8 lib/built-in.o
 .rodata        0x0000000080837758       0x80 arch/arm/lib/built-in.o
 .rodata        0x00000000808377d8       0x34 drivers/built-in.o
 .rodata.CSWTCH.123
                0x000000008083780c       0x6c common/built-in.o
 .rodata.CSWTCH.14
                0x0000000080837878       0x20 disk/built-in.o
 .rodata.CSWTCH.19
                0x0000000080837898       0x20 common/built-in.o
 .rodata.CSWTCH.22
                0x00000000808378b8        0xc drivers/built-in.o
 .rodata.CSWTCH.22
                0x00000000808378c4        0xc drivers/i2c/built-in.o
 .rodata.CSWTCH.30
                0x00000000808378d0       0x14 cmd/built-in.o
 .rodata.CSWTCH.47
                0x00000000808378e4       0x18 drivers/usb/musb-new/built-in.o
 .rodata.CSWTCH.6
                0x00000000808378fc       0x1c drivers/usb/musb-new/built-in.o
 .rodata.am33xx_gpio
                0x0000000080837918       0x30 arch/arm/mach-omap2/built-in.o
 .rodata.am33xx_serial
                0x0000000080837948       0x78 arch/arm/mach-omap2/built-in.o
 .rodata.boot_os
                0x00000000808379c0       0x60 common/built-in.o
 .rodata.cmd_dispatch_info
                0x0000000080837a20       0x30 drivers/usb/gadget/built-in.o
 .rodata.cpu_revs
                0x0000000080837a50        0xc arch/arm/mach-omap2/built-in.o
 .rodata.crc_table
                0x0000000080837a5c      0x400 lib/built-in.o
 .rodata.desc_and_len_tbl
                0x0000000080837e5c       0x30 cmd/built-in.o
 .rodata.dev_types
                0x0000000080837e8c       0x10 arch/arm/mach-omap2/built-in.o
 .rodata.dfu_state
                0x0000000080837e9c       0x2c drivers/usb/gadget/built-in.o
 .rodata.efi_con_in
                0x0000000080837ec8        0xc lib/built-in.o
                0x0000000080837ec8                efi_con_in
 .rodata.efi_con_out
                0x0000000080837ed4       0x28 lib/built-in.o
                0x0000000080837ed4                efi_con_out
 .rodata.efi_console_control
                0x0000000080837efc        0xc lib/built-in.o
                0x0000000080837efc                efi_console_control
 .rodata.efi_runtime_detach_list
                0x0000000080837f08       0x38 lib/built-in.o
 .rodata.env_flags_varaccess_mask
                0x0000000080837f40       0x10 common/built-in.o
 .rodata.ext_csd_bits.9975
                0x0000000080837f50       0x14 drivers/mmc/built-in.o
 .rodata.ext_to_hostcaps.9976
                0x0000000080837f64       0x1c drivers/mmc/built-in.o
 .rodata.fbase  0x0000000080837f80       0x10 drivers/mmc/built-in.o
 .rodata.fdt_errtable
                0x0000000080837f90       0x48 lib/built-in.o
 .rodata.gpio_function
                0x0000000080837fd8       0x14 drivers/gpio/built-in.o
 .rodata.gpio_omap_ops
                0x0000000080837fec       0x28 drivers/gpio/built-in.o
 .rodata.keywords
                0x0000000080838014       0x98 cmd/built-in.o
 .rodata.month_offset
                0x00000000808380ac       0x30 drivers/built-in.o
 .rodata.musb_ep_ops
                0x00000000808380dc       0x28 drivers/usb/musb-new/built-in.o
 .rodata.musb_g_ep0_ops
                0x0000000080838104       0x28 drivers/usb/musb-new/built-in.o
                0x0000000080838104                musb_g_ep0_ops
 .rodata.musb_gadget_operations
                0x000000008083812c       0x24 drivers/usb/musb-new/built-in.o
 .rodata.ns16550_serial_ops
                0x0000000080838150       0x14 drivers/serial/built-in.o
                0x0000000080838150                ns16550_serial_ops
 .rodata.oid_supported_list
                0x0000000080838164       0x70 drivers/usb/gadget/built-in.o
 .rodata.omap_gpio_ids
                0x00000000808381d4       0x20 drivers/gpio/built-in.o
 .rodata.omap_hsmmc_ops
                0x00000000808381f4       0x14 drivers/mmc/built-in.o
 .rodata.op_adv
                0x0000000080838208      0x100 cmd/built-in.o
                0x0000000080838208                op_adv
 .rodata.op_table
                0x0000000080838308       0x68 cmd/built-in.o
 .rodata.reg_0_5_desc_tbl
                0x0000000080838370       0x30 cmd/built-in.o
 .rodata.reg_0_desc_tbl
                0x00000000808383a0       0x78 cmd/built-in.o
 .rodata.reg_1_desc_tbl
                0x0000000080838418       0xc0 cmd/built-in.o
 .rodata.reg_2_desc_tbl
                0x00000000808384d8        0xc cmd/built-in.o
 .rodata.reg_3_desc_tbl
                0x00000000808384e4       0x24 cmd/built-in.o
 .rodata.reg_4_desc_tbl
                0x0000000080838508       0x90 cmd/built-in.o
 .rodata.reg_5_desc_tbl
                0x0000000080838598       0x90 cmd/built-in.o
 .rodata.root_info
                0x0000000080838628        0x8 drivers/built-in.o
 .rodata.sd_au_size
                0x0000000080838630       0x40 drivers/mmc/built-in.o
 .rodata.smbios_write_funcs
                0x0000000080838670       0x1c lib/built-in.o
 .rodata.spi_flash_ids
                0x000000008083868c      0x1c8 drivers/mtd/spi/built-in.o
                0x000000008083868c                spi_flash_ids
 .rodata.subcmd_list
                0x0000000080838854       0x10 cmd/built-in.o
 .rodata.uimage_arch
                0x0000000080838864      0x138 common/built-in.o
 .rodata.uimage_comp
                0x000000008083899c       0x54 common/built-in.o
 .rodata.uimage_os
                0x00000000808389f0       0x78 common/built-in.o
 .rodata.uimage_type
                0x0000000080838a68      0x180 common/built-in.o
 .rodata.widths.9977
                0x0000000080838be8       0x14 drivers/mmc/built-in.o
 .rodata.crc16_tab
                0x0000000080838bfc      0x200 lib/built-in.o
 .rodata.crc16_table
                0x0000000080838dfc      0x200 fs/built-in.o
 .rodata.dbase.8483
                0x0000000080838ffc       0x40 lib/built-in.o
 .rodata.dext.8484
                0x000000008083903c       0x40 lib/built-in.o
 .rodata.distfix
                0x000000008083907c       0x80 lib/built-in.o
 .rodata.lbase.8481
                0x00000000808390fc       0x3e lib/built-in.o
 .rodata.lenfix
                0x000000008083913a      0x800 lib/built-in.o
 .rodata.lext.8482
                0x000000008083993a       0x3e lib/built-in.o
 .rodata.order.8577
                0x0000000080839978       0x26 lib/built-in.o
 .rodata        0x000000008083999e       0x16 cmd/built-in.o
 .rodata        0x00000000808399b4        0x3 common/built-in.o
 .rodata        0x00000000808399b7       0x10 disk/built-in.o
 .rodata        0x00000000808399c7       0x20 lib/built-in.o
 .rodata        0x00000000808399e7        0x7 net/built-in.o
 .rodata.CSWTCH.48
                0x00000000808399ee        0x6 drivers/usb/musb-new/built-in.o
 .rodata.__FUNCTION__.11137
                0x00000000808399f4       0x12 drivers/usb/musb-new/built-in.o
 .rodata.__FUNCTION__.11153
                0x0000000080839a06       0x11 drivers/usb/gadget/built-in.o
 .rodata.__FUNCTION__.8894
                0x0000000080839a17       0x14 net/built-in.o
 .rodata.__FUNCTION__.9134
                0x0000000080839a2b       0x17 common/built-in.o
 .rodata.__func__.10005
                0x0000000080839a42        0xc cmd/built-in.o
 .rodata.__func__.10485
                0x0000000080839a4e       0x18 drivers/built-in.o
 .rodata.__func__.10490
                0x0000000080839a66        0xf drivers/built-in.o
 .rodata.__func__.10508
                0x0000000080839a75       0x14 drivers/built-in.o
 .rodata.__func__.10527
                0x0000000080839a89        0xc common/built-in.o
 .rodata.__func__.10545
                0x0000000080839a95       0x10 drivers/mmc/built-in.o
 .rodata.__func__.10575
                0x0000000080839aa5       0x16 drivers/mmc/built-in.o
 .rodata.__func__.10626
                0x0000000080839abb       0x16 drivers/built-in.o
 .rodata.__func__.10639
                0x0000000080839ad1        0xc drivers/built-in.o
 .rodata.__func__.10639
                0x0000000080839add       0x19 drivers/mmc/built-in.o
 .rodata.__func__.10644
                0x0000000080839af6       0x12 drivers/built-in.o
 .rodata.__func__.10654
                0x0000000080839b08       0x14 drivers/mmc/built-in.o
 .rodata.__func__.10668
                0x0000000080839b1c        0xa drivers/built-in.o
 .rodata.__func__.10691
                0x0000000080839b26        0x9 drivers/built-in.o
 .rodata.__func__.10700
                0x0000000080839b2f       0x10 drivers/built-in.o
 .rodata.__func__.10702
                0x0000000080839b3f        0xe drivers/mmc/built-in.o
 .rodata.__func__.10725
                0x0000000080839b4d       0x14 drivers/built-in.o
 .rodata.__func__.10737
                0x0000000080839b61        0xf drivers/mmc/built-in.o
 .rodata.__func__.10755
                0x0000000080839b70       0x15 board/ti/am335x/built-in.o
 .rodata.__func__.10761
                0x0000000080839b85       0x17 drivers/usb/gadget/built-in.o
 .rodata.__func__.10786
                0x0000000080839b9c       0x18 drivers/built-in.o
 .rodata.__func__.10802
                0x0000000080839bb4       0x13 drivers/mmc/built-in.o
 .rodata.__func__.10819
                0x0000000080839bc7        0xa drivers/usb/gadget/built-in.o
 .rodata.__func__.10842
                0x0000000080839bd1        0xf drivers/usb/gadget/built-in.o
 .rodata.__func__.10847
                0x0000000080839be0       0x13 common/built-in.o
 .rodata.__func__.10896
                0x0000000080839bf3        0xd drivers/built-in.o
 .rodata.__func__.10921
                0x0000000080839c00        0xc drivers/built-in.o
 .rodata.__func__.10928
                0x0000000080839c0c        0x9 drivers/usb/gadget/built-in.o
 .rodata.__func__.10939
                0x0000000080839c15       0x15 drivers/built-in.o
 .rodata.__func__.10940
                0x0000000080839c2a        0xe drivers/usb/gadget/built-in.o
 .rodata.__func__.10953
                0x0000000080839c38       0x18 drivers/built-in.o
 .rodata.__func__.10956
                0x0000000080839c50        0xe drivers/usb/gadget/built-in.o
 .rodata.__func__.10974
                0x0000000080839c5e       0x14 drivers/built-in.o
 .rodata.__func__.10985
                0x0000000080839c72        0xd drivers/usb/gadget/built-in.o
 .rodata.__func__.10989
                0x0000000080839c7f       0x14 drivers/built-in.o
 .rodata.__func__.11126
                0x0000000080839c93        0xf drivers/usb/musb-new/built-in.o
 .rodata.__func__.11167
                0x0000000080839ca2       0x10 drivers/usb/musb-new/built-in.o
 .rodata.__func__.11190
                0x0000000080839cb2       0x14 drivers/usb/musb-new/built-in.o
 .rodata.__func__.11204
                0x0000000080839cc6        0xf drivers/usb/musb-new/built-in.o
 .rodata.__func__.11252
                0x0000000080839cd5        0xd drivers/usb/musb-new/built-in.o
 .rodata.__func__.11266
                0x0000000080839ce2        0xf drivers/usb/musb-new/built-in.o
 .rodata.__func__.11290
                0x0000000080839cf1        0xf drivers/usb/gadget/built-in.o
 .rodata.__func__.8280
                0x0000000080839d00        0xe common/built-in.o
 .rodata.__func__.8293
                0x0000000080839d0e        0xf disk/built-in.o
 .rodata.__func__.8305
                0x0000000080839d1d       0x12 disk/built-in.o
 .rodata.__func__.8316
                0x0000000080839d2f       0x13 disk/built-in.o
 .rodata.__func__.8366
                0x0000000080839d42        0xc disk/built-in.o
 .rodata.__func__.8384
                0x0000000080839d4e       0x13 disk/built-in.o
 .rodata.__func__.8397
                0x0000000080839d61       0x16 disk/built-in.o
 .rodata.__func__.8434
                0x0000000080839d77        0xd disk/built-in.o
 .rodata.__func__.8440
                0x0000000080839d84        0x7 cmd/built-in.o
 .rodata.__func__.8443
                0x0000000080839d8b       0x17 disk/built-in.o
 .rodata.__func__.8448
                0x0000000080839da2        0xd disk/built-in.o
 .rodata.__func__.8545
                0x0000000080839daf       0x10 common/built-in.o
 .rodata.__func__.8561
                0x0000000080839dbf        0xb common/built-in.o
 .rodata.__func__.8568
                0x0000000080839dca        0xb common/built-in.o
 .rodata.__func__.8569
                0x0000000080839dd5        0xf fs/built-in.o
 .rodata.__func__.8602
                0x0000000080839de4       0x13 fs/built-in.o
 .rodata.__func__.8611
                0x0000000080839df7       0x14 fs/built-in.o
 .rodata.__func__.8936
                0x0000000080839e0b        0xc lib/built-in.o
 .rodata.__func__.8940
                0x0000000080839e17        0xe cmd/built-in.o
 .rodata.__func__.8977
                0x0000000080839e25        0xe cmd/built-in.o
 .rodata.__func__.9011
                0x0000000080839e33       0x18 common/built-in.o
 .rodata.__func__.9018
                0x0000000080839e4b       0x1c fs/built-in.o
 .rodata.__func__.9155
                0x0000000080839e67        0xa drivers/usb/gadget/built-in.o
 .rodata.__func__.9222
                0x0000000080839e71       0x13 drivers/usb/gadget/built-in.o
 .rodata.__func__.9410
                0x0000000080839e84        0xe drivers/built-in.o
 .rodata.__func__.9654
                0x0000000080839e92        0xd drivers/built-in.o
 .rodata.__func__.9660
                0x0000000080839e9f       0x11 drivers/built-in.o
 .rodata.__func__.9672
                0x0000000080839eb0        0xd drivers/built-in.o
 .rodata.__func__.9676
                0x0000000080839ebd       0x14 drivers/built-in.o
 .rodata.__func__.9928
                0x0000000080839ed1       0x14 drivers/i2c/built-in.o
 .rodata.__omap24_i2c_setspeed.str1.1
                0x0000000080839ee5       0x4c drivers/i2c/built-in.o
 .rodata._ctype
                0x0000000080839f31      0x100 lib/built-in.o
                0x0000000080839f31                _ctype
 .rodata._do_env_set.isra.1.str1.1
                0x000000008083a031       0x7c cmd/built-in.o
 .rodata._do_help.str1.1
                0x000000008083a0ad       0x5f common/built-in.o
 .rodata.acm_descriptor
                0x000000008083a10c        0x4 drivers/usb/gadget/built-in.o
 .rodata.android_image_check_header.str1.1
                0x000000008083a110        0x9 common/built-in.o
 .rodata.android_image_get_kernel.str1.1
                0x000000008083a119       0x8b common/built-in.o
                                         0x96 (size before relaxing)
 .rodata.android_image_get_ramdisk.str1.1
                0x000000008083a1a4       0x27 common/built-in.o
 .rodata.android_print_contents.str1.1
                0x000000008083a1cb       0xf0 common/built-in.o
                                         0xf4 (size before relaxing)
 .rodata.announce_dram_init.str1.1
                0x000000008083a2bb        0x8 common/built-in.o
 .rodata.arp_receive.str1.1
                0x000000008083a2c3       0x14 net/built-in.o
 .rodata.arp_request.str1.1
                0x000000008083a2d7       0x2a net/built-in.o
 .rodata.arp_timeout_check.str1.1
                0x000000008083a301       0x2b net/built-in.o
 .rodata.autoboot_command.str1.1
                0x000000008083a32c       0x46 common/built-in.o
                                         0x4a (size before relaxing)
 .rodata.b_addqchr.str1.1
                0x000000008083a372        0x5 common/built-in.o
 .rodata.bad_mode.str1.1
                0x000000008083a377       0x13 arch/arm/lib/built-in.o
 .rodata.binary_test.str1.1
                0x000000008083a38a       0x17 cmd/built-in.o
 .rodata.blk_get_device_by_str.str1.1
                0x000000008083a3a1       0x6a disk/built-in.o
 .rodata.blk_get_device_part_str.str1.1
                0x000000008083a40b      0x112 disk/built-in.o
                                        0x11b (size before relaxing)
 .rodata.board_eth_init.str1.1
                0x000000008083a51d       0x73 board/ti/am335x/built-in.o
 .rodata.board_init.str1.1
                0x000000008083a590       0xa2 board/ti/am335x/built-in.o
                                         0xa4 (size before relaxing)
 .rodata.board_late_init.str1.1
                0x000000008083a632       0x58 board/ti/am335x/built-in.o
                                         0x5a (size before relaxing)
 .rodata.boot_fdt_add_mem_rsv_regions.str1.1
                0x000000008083a68a       0x35 common/built-in.o
 .rodata.boot_get_fdt.str1.1
                0x000000008083a6bf      0x1b5 common/built-in.o
                                        0x1d4 (size before relaxing)
 .rodata.boot_get_loadable.str1.1
                0x000000008083a874       0x3e common/built-in.o
 .rodata.boot_get_ramdisk.str1.1
                0x000000008083a8b2       0xb7 common/built-in.o
                                        0x115 (size before relaxing)
 .rodata.boot_get_setup_fit.str1.1
                0x000000008083a969       0x8f common/built-in.o
                                          0x6 (size before relaxing)
 .rodata.boot_jump_linux.str1.1
                0x000000008083a969       0x5c arch/arm/lib/built-in.o
                                         0x5d (size before relaxing)
 .rodata.boot_prep_linux.str1.1
                0x000000008083a9c5       0x20 arch/arm/lib/built-in.o
                                         0x29 (size before relaxing)
 .rodata.boot_prep_vxworks.str1.1
                0x000000008083a9e5       0x2a arch/arm/lib/built-in.o
 .rodata.boot_ramdisk_high.str1.1
                0x000000008083aa0f       0x54 common/built-in.o
 .rodata.boot_relocate_fdt.str1.1
                0x000000008083aa63       0xcf common/built-in.o
                                         0xd3 (size before relaxing)
 .rodata.bootdelay_process.str1.1
                0x000000008083ab32       0x5e common/built-in.o
                                         0x66 (size before relaxing)
 .rodata.bootm_decomp_image.str1.1
                0x000000008083ab90       0x99 common/built-in.o
                                         0xc0 (size before relaxing)
 .rodata.bootm_find_images.str1.1
                0x000000008083ac29       0x6c common/built-in.o
 .rodata.bootm_maybe_autostart.str1.1
                0x000000008083ac95       0x3b cmd/built-in.o
 .rodata.bootp_request.str1.1
                0x000000008083acd0       0x25 net/built-in.o
 .rodata.bootp_timeout_handler.str1.1
                0x000000008083acf5       0x26 net/built-in.o
 .rodata.calculate_hash.str1.1
                0x000000008083ad1b        0x4 common/built-in.o
                                         0x16 (size before relaxing)
 .rodata.call_mgmt_descriptor
                0x000000008083ad1f        0x5 drivers/usb/gadget/built-in.o
 .rodata.cb_continue.str1.1
                0x000000008083ad24        0x5 drivers/usb/gadget/built-in.o
 .rodata.cb_download.str1.1
                0x000000008083ad29       0x51 drivers/usb/gadget/built-in.o
                                         0x53 (size before relaxing)
 .rodata.cb_getvar.str1.1
                0x000000008083ad7a       0xe6 drivers/usb/gadget/built-in.o
                                         0xf6 (size before relaxing)
 .rodata.cb_oem.str1.1
                0x000000008083ae60       0x55 drivers/usb/gadget/built-in.o
                                         0x5c (size before relaxing)
 .rodata.cb_reboot.str1.1
                0x000000008083aeb5       0x2d drivers/usb/gadget/built-in.o
 .rodata.check_cache_range.str1.1
                0x000000008083aee2       0x35 arch/arm/lib/built-in.o
 .rodata.check_reserved.str1.1
                0x000000008083af17       0x27 drivers/gpio/built-in.o
                                         0x28 (size before relaxing)
 .rodata.cli_readline_into_buffer.str1.1
                0x000000008083af3e        0x7 common/built-in.o
                                          0x8 (size before relaxing)
 .rodata.clk_synthesizer_reg_write.str1.1
                0x000000008083af45       0x33 arch/arm/mach-omap2/built-in.o
 .rodata.cmd_auto_complete.str1.1
                0x000000008083af78       0x5f common/built-in.o
                                          0xf (size before relaxing)
 .rodata.cmd_process.str1.1
                0x000000008083af78       0x3f common/built-in.o
 .rodata.cmd_process_error.str1.1
                0x000000008083afb7       0x1f common/built-in.o
 .rodata.cmd_usage.str1.1
                0x000000008083afd6       0x36 common/built-in.o
 .rodata.common_diskboot.str1.1
                0x000000008083b00c       0xbf cmd/built-in.o
 .rodata.compile.str1.1
                0x000000008083b0cb       0x4a lib/built-in.o
 .rodata.composite_unbind.str1.1
                0x000000008083b115       0x41 drivers/usb/gadget/built-in.o
 .rodata.cpsw_init.str1.1
                0x000000008083b156       0x5c drivers/net/built-in.o
                                         0x66 (size before relaxing)
 .rodata.cpsw_mdio_read.str1.1
                0x000000008083b1b2       0x1e drivers/net/built-in.o
 .rodata.cpsw_register.str1.1
                0x000000008083b1d0        0x5 drivers/net/built-in.o
 .rodata.cpsw_send.str1.1
                0x000000008083b1d5       0x17 drivers/net/built-in.o
 .rodata.cread_add_char.str1.1
                0x000000008083b1ec        0x5 common/built-in.o
 .rodata.default_environment
                0x000000008083b1f1     0x1eee common/built-in.o
                0x000000008083b1f1                default_environment
 .rodata.dev_get_platdata.str1.1
                0x000000008083d0df       0x11 drivers/built-in.o
 .rodata.dev_print.str1.1
                0x000000008083d0f0      0x14d disk/built-in.o
                                        0x15e (size before relaxing)
 .rodata.device_bind_common.isra.0.str1.1
                0x000000008083d23d       0x5b drivers/built-in.o
 .rodata.device_probe.str1.1
                0x000000008083d298       0x30 drivers/built-in.o
 .rodata.device_remove.str1.1
                0x000000008083d2c8       0x98 drivers/built-in.o
 .rodata.dfu_add.str1.1
                0x000000008083d360        0x4 drivers/usb/gadget/built-in.o
 .rodata.dfu_config_entities.str1.1
                0x000000008083d360       0xe0 drivers/built-in.o
                                         0xf5 (size before relaxing)
 .rodata.dfu_fill_entity_mmc.str1.1
                0x000000008083d440      0x156 drivers/built-in.o
                                        0x15d (size before relaxing)
 .rodata.dfu_fill_entity_ram.str1.1
                0x000000008083d596       0x2e drivers/built-in.o
                                         0x68 (size before relaxing)
 .rodata.dfu_flush.str1.1
                0x000000008083d5c4       0x1a drivers/built-in.o
 .rodata.dfu_func
                0x000000008083d5de        0x9 drivers/usb/gadget/built-in.o
 .rodata.dfu_get_buf.str1.1
                0x000000008083d5e7       0x2f drivers/built-in.o
 .rodata.dfu_init_env_entities.str1.1
                0x000000008083d616       0x87 drivers/built-in.o
 .rodata.dfu_name
                0x000000008083d69d       0x18 drivers/usb/gadget/built-in.o
 .rodata.dfu_read.str1.1
                0x000000008083d6b5       0x40 drivers/built-in.o
 .rodata.dfu_read_medium_ram.str1.1
                0x000000008083d6f5       0x78 drivers/built-in.o
 .rodata.dfu_show_entities.str1.1
                0x000000008083d76d       0x3d drivers/built-in.o
 .rodata.dfu_tftp_write.str1.1
                0x000000008083d7aa       0x8c drivers/built-in.o
 .rodata.dfu_write.str1.1
                0x000000008083d836       0x75 drivers/built-in.o
 .rodata.dfu_write_buffer_drain.str1.1
                0x000000008083d8ab       0x75 drivers/built-in.o
                                          0x2 (size before relaxing)
 .rodata.dfu_write_from_mem_addr.str1.1
                0x000000008083d8ab       0x50 drivers/built-in.o
 .rodata.dhcp_extended.str1.1
                0x000000008083d8fb       0x37 net/built-in.o
                                         0x48 (size before relaxing)
 .rodata.dhcp_handler.str1.1
                0x000000008083d932       0x41 net/built-in.o
                                         0x4a (size before relaxing)
 .rodata.dhcp_process_options.str1.1
                0x000000008083d973       0x78 net/built-in.o
 .rodata.digits.8131
                0x000000008083d9eb       0x10 lib/built-in.o
 .rodata.disk_write.str1.1
                0x000000008083d9fb       0x18 fs/built-in.o
 .rodata.display_options.str1.1
                0x000000008083d9fb        0x7 lib/built-in.o
 .rodata.dm_dump_all.str1.1
                0x000000008083da02       0x1c drivers/built-in.o
                                         0x46 (size before relaxing)
 .rodata.dm_dump_uclass.str1.1
                0x000000008083da1e       0x32 drivers/built-in.o
                                         0x34 (size before relaxing)
 .rodata.dm_gpio_get_value.str1.1
                0x000000008083da50        0xa drivers/gpio/built-in.o
 .rodata.dm_gpio_set_value.str1.1
                0x000000008083da5a        0xa drivers/gpio/built-in.o
 .rodata.dm_init.str1.1
                0x000000008083da64       0x25 drivers/built-in.o
 .rodata.dm_root.str1.1
                0x000000008083da89       0x25 drivers/built-in.o
 .rodata.dm_scan_platdata.str1.1
                0x000000008083daae       0x1d drivers/built-in.o
 .rodata.do_bdinfo.str1.1
                0x000000008083dacb       0xf2 cmd/built-in.o
                                         0xfa (size before relaxing)
 .rodata.do_bootd.str1.1
                0x000000008083dbbd       0x3b cmd/built-in.o
                                          0x8 (size before relaxing)
 .rodata.do_bootefi.str1.1
                0x000000008083dbbd       0x4d cmd/built-in.o
 .rodata.do_bootefi_exec.str1.1
                0x000000008083dc0a       0x59 cmd/built-in.o
 .rodata.do_bootelf.str1.1
                0x000000008083dc63       0x4f cmd/built-in.o
                                         0x5c (size before relaxing)
 .rodata.do_bootm.str1.1
                0x000000008083dcb2       0x2a cmd/built-in.o
 .rodata.do_bootm_netbsd.str1.1
                0x000000008083dcdc       0x49 common/built-in.o
                                         0x4a (size before relaxing)
 .rodata.do_bootm_on_complete.str1.1
                0x000000008083dd25       0x18 drivers/usb/gadget/built-in.o
                                         0x1e (size before relaxing)
 .rodata.do_bootm_plan9.str1.1
                0x000000008083dd3d       0x43 common/built-in.o
                                         0x4c (size before relaxing)
 .rodata.do_bootm_qnxelf.str1.1
                0x000000008083dd80        0x4 common/built-in.o
 .rodata.do_bootm_rtems.str1.1
                0x000000008083dd80       0x39 common/built-in.o
 .rodata.do_bootm_standalone.str1.1
                0x000000008083ddb9       0x16 common/built-in.o
 .rodata.do_bootm_states.str1.1
                0x000000008083ddb9      0x2b0 common/built-in.o
                                        0x328 (size before relaxing)
 .rodata.do_bootvx.str1.1
                0x000000008083e069      0x1be cmd/built-in.o
                                        0x1d0 (size before relaxing)
 .rodata.do_bootvx_fdt.str1.1
                0x000000008083e227       0x57 common/built-in.o
                                         0x75 (size before relaxing)
 .rodata.do_coninfo.str1.1
                0x000000008083e27e       0x2c cmd/built-in.o
                                         0x30 (size before relaxing)
 .rodata.do_data_abort.str1.1
                0x000000008083e2aa        0xc arch/arm/lib/built-in.o
 .rodata.do_dfu.str1.1
                0x000000008083e2b6        0xc cmd/built-in.o
                                         0x16 (size before relaxing)
 .rodata.do_echo.str1.1
                0x000000008083e2c2        0x3 cmd/built-in.o
 .rodata.do_eeprom.str1.1
                0x000000008083e2c5       0x39 cmd/built-in.o
                                         0x4a (size before relaxing)
 .rodata.do_env_ask.str1.1
                0x000000008083e2fe       0x14 cmd/built-in.o
 .rodata.do_env_default.str1.1
                0x000000008083e312       0x25 cmd/built-in.o
 .rodata.do_env_edit.part.4.str1.1
                0x000000008083e337        0x7 cmd/built-in.o
                                          0xa (size before relaxing)
 .rodata.do_env_export.str1.1
                0x000000008083e33e       0x41 cmd/built-in.o
                                         0x4a (size before relaxing)
 .rodata.do_env_import.str1.1
                0x000000008083e37f      0x152 cmd/built-in.o
 .rodata.do_env_print.str1.1
                0x000000008083e4d1       0x3d cmd/built-in.o
 .rodata.do_env_save.str1.1
                0x000000008083e50e       0x1d cmd/built-in.o
 .rodata.do_fastboot.str1.1
                0x000000008083e52b       0x72 cmd/built-in.o
 .rodata.do_fat_fsinfo.str1.1
                0x000000008083e59d       0x56 cmd/built-in.o
 .rodata.do_fat_fswrite.str1.1
                0x000000008083e5f3       0x6b cmd/built-in.o
 .rodata.do_fat_read_at.str1.1
                0x000000008083e65e       0x82 fs/built-in.o
                                         0x83 (size before relaxing)
 .rodata.do_fat_write.str1.1
                0x000000008083e6e0       0xc3 fs/built-in.o
 .rodata.do_fdt.str1.1
                0x000000008083e7a3      0x467 cmd/built-in.o
                                        0x48e (size before relaxing)
 .rodata.do_fiq.str1.1
                0x000000008083ec0a       0x18 arch/arm/lib/built-in.o
 .rodata.do_fixup_by_path.str1.1
                0x000000008083ec22       0x29 common/built-in.o
 .rodata.do_fs_uuid.str1.1
                0x000000008083ec4b        0x4 fs/built-in.o
 .rodata.do_get_any.str1.1
                0x000000008083ec4b        0x5 cmd/built-in.o
 .rodata.do_get_ext2.str1.1
                0x000000008083ec4b        0x9 cmd/built-in.o
 .rodata.do_get_fat.str1.1
                0x000000008083ec4b        0x8 cmd/built-in.o
 .rodata.do_get_tftp.str1.1
                0x000000008083ec4b        0x5 cmd/built-in.o
 .rodata.do_go.str1.1
                0x000000008083ec4b       0x4f cmd/built-in.o
 .rodata.do_gpio.str1.1
                0x000000008083ec9a       0xc4 cmd/built-in.o
                                         0xd2 (size before relaxing)
 .rodata.do_gpt.str1.1
                0x000000008083ed5e       0xd1 cmd/built-in.o
                                         0xe6 (size before relaxing)
 .rodata.do_i2c_bus_num.str1.1
                0x000000008083ee2f       0x58 cmd/built-in.o
 .rodata.do_i2c_bus_speed.str1.1
                0x000000008083ee87       0x53 cmd/built-in.o
 .rodata.do_i2c_crc.str1.1
                0x000000008083eeda       0x3e cmd/built-in.o
                                         0x45 (size before relaxing)
 .rodata.do_i2c_md.str1.1
                0x000000008083ef18        0xc cmd/built-in.o
                                         0x16 (size before relaxing)
 .rodata.do_i2c_probe.str1.1
                0x000000008083ef24       0x1c cmd/built-in.o
 .rodata.do_i2c_show_bus.str1.1
                0x000000008083ef40        0xb cmd/built-in.o
                                          0xd (size before relaxing)
 .rodata.do_i2c_write.str1.1
                0x000000008083ef4b        0x3 cmd/built-in.o
 .rodata.do_imgextract.str1.1
                0x000000008083ef4e      0x1af cmd/built-in.o
                                        0x296 (size before relaxing)
 .rodata.do_irq.str1.1
                0x000000008083f0fd       0x18 arch/arm/lib/built-in.o
                                         0x13 (size before relaxing)
 .rodata.do_itest.str1.1
                0x000000008083f0fd       0x1e cmd/built-in.o
 .rodata.do_load.str1.1
                0x000000008083f11b       0x39 fs/built-in.o
                                         0x5b (size before relaxing)
 .rodata.do_load_serial.str1.1
                0x000000008083f154       0x6b cmd/built-in.o
 .rodata.do_load_serial_bin.str1.1
                0x000000008083f1bf      0x159 cmd/built-in.o
 .rodata.do_load_wrapper.str1.1
                0x000000008083f318        0x1 cmd/built-in.o
 .rodata.do_ls.str1.1
                0x000000008083f318        0x2 fs/built-in.o
 .rodata.do_mdio.str1.1
                0x000000008083f318       0x65 cmd/built-in.o
 .rodata.do_mem_base.str1.1
                0x000000008083f37d       0x17 cmd/built-in.o
 .rodata.do_mem_cmp.str1.1
                0x000000008083f394       0x6e cmd/built-in.o
                                         0x73 (size before relaxing)
 .rodata.do_mem_cp.str1.1
                0x000000008083f402       0x11 cmd/built-in.o
 .rodata.do_mem_crc.str1.1
                0x000000008083f413        0x6 cmd/built-in.o
 .rodata.do_mii.str1.1
                0x000000008083f413      0x297 cmd/built-in.o
                                        0x2b0 (size before relaxing)
 .rodata.do_mmc_dev.str1.1
                0x000000008083f6aa       0x89 cmd/built-in.o
 .rodata.do_mmc_erase.str1.1
                0x000000008083f733       0x67 cmd/built-in.o
 .rodata.do_mmc_hwpartition.str1.1
                0x000000008083f79a      0x126 cmd/built-in.o
                                        0x142 (size before relaxing)
 .rodata.do_mmc_part.str1.1
                0x000000008083f8c0       0x15 cmd/built-in.o
 .rodata.do_mmc_read.str1.1
                0x000000008083f8d5       0x43 cmd/built-in.o
 .rodata.do_mmc_setdsr.str1.1
                0x000000008083f918       0x1d cmd/built-in.o
 .rodata.do_mmc_write.str1.1
                0x000000008083f935       0x47 cmd/built-in.o
 .rodata.do_mmcinfo.str1.1
                0x000000008083f97c      0x107 cmd/built-in.o
                                        0x159 (size before relaxing)
 .rodata.do_mmcops.str1.1
                0x000000008083fa83       0x19 cmd/built-in.o
 .rodata.do_not_used.str1.1
                0x000000008083fa9c        0xa arch/arm/lib/built-in.o
 .rodata.do_part.str1.1
                0x000000008083faa6       0x1d cmd/built-in.o
                                         0x15 (size before relaxing)
 .rodata.do_part_list.str1.1
                0x000000008083faa6       0x22 cmd/built-in.o
                                         0x25 (size before relaxing)
 .rodata.do_part_start.str1.1
                0x000000008083fac8       0x22 cmd/built-in.o
                                          0x8 (size before relaxing)
 .rodata.do_ping.str1.1
                0x000000008083fac8       0x35 cmd/built-in.o
 .rodata.do_prefetch_abort.str1.1
                0x000000008083fafd       0x10 arch/arm/lib/built-in.o
 .rodata.do_pxe_boot.str1.1
                0x000000008083fb0d       0x38 cmd/built-in.o
 .rodata.do_pxe_get.str1.1
                0x000000008083fb45       0x41 cmd/built-in.o
                                         0x46 (size before relaxing)
 .rodata.do_reset.str1.1
                0x000000008083fb86        0xf arch/arm/lib/built-in.o
 .rodata.do_run.str1.1
                0x000000008083fb95       0x1c common/built-in.o
 .rodata.do_save.str1.1
                0x000000008083fb95       0x1d fs/built-in.o
 .rodata.do_showvar.str1.1
                0x000000008083fbb2        0xc common/built-in.o
                                         0x2f (size before relaxing)
 .rodata.do_size.str1.1
                0x000000008083fbbe        0x9 fs/built-in.o
 .rodata.do_software_interrupt.str1.1
                0x000000008083fbbe       0x14 arch/arm/lib/built-in.o
 .rodata.do_source.str1.1
                0x000000008083fbd2       0x1e cmd/built-in.o
 .rodata.do_spi.str1.1
                0x000000008083fbf0       0x66 cmd/built-in.o
                                         0x6d (size before relaxing)
 .rodata.do_spi_flash.str1.1
                0x000000008083fc56      0x1c9 cmd/built-in.o
                                        0x1f2 (size before relaxing)
 .rodata.do_spl.str1.1
                0x000000008083fe1f       0x86 cmd/built-in.o
 .rodata.do_sysboot.str1.1
                0x000000008083fea5       0x43 cmd/built-in.o
 .rodata.do_undefined_instruction.str1.1
                0x000000008083fee8       0x17 arch/arm/lib/built-in.o
 .rodata.do_usb.str1.1
                0x000000008083feff      0x388 cmd/built-in.o
                                        0x3c2 (size before relaxing)
 .rodata.do_usbboot.str1.1
                0x0000000080840287        0x4 cmd/built-in.o
 .rodata.do_version.str1.1
                0x000000008084028b       0x67 cmd/built-in.o
 .rodata.driver_desc
                0x00000000808402f2       0x10 drivers/usb/gadget/built-in.o
 .rodata.efi_block_io_guid
                0x0000000080840302       0x10 lib/built-in.o
 .rodata.efi_cout_clear_screen.str1.1
                0x0000000080840312        0x5 lib/built-in.o
 .rodata.efi_cout_enable_cursor.str1.1
                0x0000000080840317        0x8 lib/built-in.o
 .rodata.efi_cout_query_mode.str1.1
                0x000000008084031f        0x6 lib/built-in.o
 .rodata.efi_cout_set_cursor_position.str1.1
                0x0000000080840325        0x9 lib/built-in.o
 .rodata.efi_disk_register.str1.1
                0x000000008084032e       0x34 lib/built-in.o
 .rodata.efi_guid_console_control
                0x0000000080840362       0x10 lib/built-in.o
                0x0000000080840362                efi_guid_console_control
 .rodata.efi_guid_device_path
                0x0000000080840372       0x10 lib/built-in.o
                0x0000000080840372                efi_guid_device_path
 .rodata.efi_guid_loaded_image
                0x0000000080840382       0x10 lib/built-in.o
                0x0000000080840382                efi_guid_loaded_image
 .rodata.efi_load_pe.str1.1
                0x0000000080840392       0xa0 lib/built-in.o
 .rodata.efi_net_guid
                0x0000000080840432       0x10 lib/built-in.o
 .rodata.efi_pxe_guid
                0x0000000080840442       0x10 lib/built-in.o
 .rodata.efi_runtime_relocate.str1.1
                0x0000000080840452       0x34 lib/built-in.o
 .rodata.efi_set_bootdev.str1.1
                0x0000000080840486        0x9 cmd/built-in.o
                                         0x15 (size before relaxing)
 .rodata.efi_set_timer.str1.1
                0x000000008084048f       0x2b lib/built-in.o
 .rodata.emit.str1.1
                0x00000000808404ba       0x1f lib/built-in.o
 .rodata.env_callback_init.str1.1
                0x00000000808404d9        0xb common/built-in.o
 .rodata.env_complete.str1.1
                0x00000000808404e4      0x19e common/built-in.o
                                          0x4 (size before relaxing)
 .rodata.env_export.str1.1
                0x00000000808404e4       0x3d common/built-in.o
 .rodata.env_flags_init.str1.1
                0x00000000808404e4        0x7 common/built-in.o
 .rodata.env_flags_parse_varaccess.str1.1
                0x00000000808404eb       0x3d common/built-in.o
 .rodata.env_flags_parse_vartype.str1.1
                0x0000000080840528       0x34 common/built-in.o
 .rodata.env_flags_validate.str1.1
                0x000000008084055c       0xb2 common/built-in.o
                                         0xb3 (size before relaxing)
 .rodata.env_flags_varaccess_rep
                0x000000008084060e        0x5 common/built-in.o
 .rodata.env_flags_vartype_rep
                0x0000000080840613        0x7 common/built-in.o
 .rodata.env_import.str1.1
                0x000000008084061a       0x4c common/built-in.o
                                         0x55 (size before relaxing)
 .rodata.env_print.str1.1
                0x0000000080840666       0x2c cmd/built-in.o
 .rodata.env_relocate_spec.str1.1
                0x0000000080840692       0x88 common/built-in.o
 .rodata.erase_seq
                0x000000008084071a        0x4 common/built-in.o
 .rodata.eth_bind.str1.1
                0x000000008084071e      0x166 drivers/usb/gadget/built-in.o
                                        0x19a (size before relaxing)
 .rodata.eth_current_changed.str1.1
                0x0000000080840884       0x11 net/built-in.o
                                         0x14 (size before relaxing)
 .rodata.eth_get_dev_by_name.str1.1
                0x0000000080840895       0x11 net/built-in.o
                                         0x33 (size before relaxing)
 .rodata.eth_get_name.str1.1
                0x00000000808408a6        0x8 net/built-in.o
 .rodata.eth_getenv_enetaddr_by_index.str1.1
                0x00000000808408a6       0x10 net/built-in.o
 .rodata.eth_initialize.str1.1
                0x00000000808408b6       0x96 net/built-in.o
                                         0xb0 (size before relaxing)
 .rodata.eth_mac_skip.str1.1
                0x000000008084094c       0x18 net/built-in.o
 .rodata.eth_set_current.str1.1
                0x0000000080840964        0x9 net/built-in.o
 .rodata.eth_setenv_enetaddr.str1.1
                0x0000000080840964        0x4 net/built-in.o
 .rodata.eth_setup.str1.1
                0x0000000080840968       0x3d drivers/usb/gadget/built-in.o
                                         0x49 (size before relaxing)
 .rodata.eth_write_hwaddr.str1.1
                0x00000000808409a5       0xd4 net/built-in.o
 .rodata.ext4_read_file.str1.1
                0x0000000080840a79       0x19 fs/built-in.o
 .rodata.ext4_write_file.str1.1
                0x0000000080840a92       0x42 fs/built-in.o
 .rodata.ext4fs_allocate_blocks.str1.1
                0x0000000080840ad4       0x61 fs/built-in.o
 .rodata.ext4fs_check_journal_state.str1.1
                0x0000000080840b35       0x2e fs/built-in.o
 .rodata.ext4fs_devread.str1.1
                0x0000000080840b63       0xa6 fs/built-in.o
 .rodata.ext4fs_filename_unlink.str1.1
                0x0000000080840c09       0x16 fs/built-in.o
 .rodata.ext4fs_get_bgdtable.str1.1
                0x0000000080840c1f       0x19 fs/built-in.o
 .rodata.ext4fs_get_parent_inode_num.str1.1
                0x0000000080840c38       0x3e fs/built-in.o
                                         0x40 (size before relaxing)
 .rodata.ext4fs_init.str1.1
                0x0000000080840c76       0x33 fs/built-in.o
 .rodata.ext4fs_iterate_dir.str1.1
                0x0000000080840ca9       0x43 fs/built-in.o
                                         0x4a (size before relaxing)
 .rodata.ext4fs_log_journal.str1.1
                0x0000000080840cec       0x1c fs/built-in.o
 .rodata.ext4fs_ls.str1.1
                0x0000000080840d08       0x1f fs/built-in.o
 .rodata.ext4fs_mount.str1.1
                0x0000000080840d27       0x24 fs/built-in.o
 .rodata.ext4fs_push_revoke_blk.str1.1
                0x0000000080840d4b       0x2e fs/built-in.o
 .rodata.ext4fs_update_journal.str1.1
                0x0000000080840d79       0x19 fs/built-in.o
 .rodata.ext4fs_update_parent_dentry.str1.1
                0x0000000080840d92       0x86 fs/built-in.o
 .rodata.ext4fs_write.str1.1
                0x0000000080840e18       0x78 fs/built-in.o
 .rodata.extract_env.str1.1
                0x0000000080840e90        0x3 cmd/built-in.o
 .rodata.extract_val.str1.1
                0x0000000080840e93        0x3 cmd/built-in.o
                                          0x4 (size before relaxing)
 .rodata.fastboot_add.str1.1
                0x0000000080840e93        0xb drivers/usb/gadget/built-in.o
 .rodata.fastboot_complete.str1.1
                0x0000000080840e9e       0x1e drivers/usb/gadget/built-in.o
 .rodata.fastboot_name
                0x0000000080840ebc       0x11 drivers/usb/gadget/built-in.o
 .rodata.fastboot_set_alt.str1.1
                0x0000000080840ecd       0x5f drivers/usb/gadget/built-in.o
 .rodata.fastboot_tx_write_str.str1.1
                0x0000000080840f2c       0x13 drivers/usb/gadget/built-in.o
 .rodata.fat_read_file.str1.1
                0x0000000080840f3f       0x1e fs/built-in.o
 .rodata.fat_set_blk_dev.str1.1
                0x0000000080840f5d        0x3 fs/built-in.o
                                          0xd (size before relaxing)
 .rodata.fb_set_reboot_flag.str1.1
                0x0000000080840f60       0x30 arch/arm/mach-omap2/built-in.o
                                         0x32 (size before relaxing)
 .rodata.fdt_address_cells.str1.1
                0x0000000080840f90        0xf lib/built-in.o
 .rodata.fdt_chosen.str1.1
                0x0000000080840f9f       0x35 common/built-in.o
                                         0x3e (size before relaxing)
 .rodata.fdt_error.str1.1
                0x0000000080840fd4       0x2d common/built-in.o
 .rodata.fdt_find_or_add_subnode.str1.1
                0x0000000080841001        0xc common/built-in.o
 .rodata.fdt_fixup_ethernet.str1.1
                0x000000008084100d       0x2e common/built-in.o
                                         0x42 (size before relaxing)
 .rodata.fdt_fixup_memory_banks.str1.1
                0x000000008084103b       0x85 common/built-in.o
                                         0x94 (size before relaxing)
 .rodata.fdt_get_alias_namelen.str1.1
                0x00000000808410c0        0x9 lib/built-in.o
 .rodata.fdt_initrd.str1.1
                0x00000000808410c0       0x90 common/built-in.o
                                         0x97 (size before relaxing)
 .rodata.fdt_root.str1.1
                0x0000000080841150       0x4e common/built-in.o
 .rodata.fdt_size_cells.str1.1
                0x000000008084119e        0xc lib/built-in.o
 .rodata.fdt_strerror.str1.1
                0x00000000808411aa       0x31 lib/built-in.o
 .rodata.fdt_valid.str1.1
                0x00000000808411db       0x79 cmd/built-in.o
                                         0x7b (size before relaxing)
 .rodata.file_fat_detectfs.str1.1
                0x0000000080841254       0x64 fs/built-in.o
                                         0x84 (size before relaxing)
 .rodata.file_fat_read_at.str1.1
                0x00000000808412b8        0xc fs/built-in.o
 .rodata.file_fat_write.str1.1
                0x00000000808412c4       0x40 fs/built-in.o
 .rodata.file_get.str1.1
                0x0000000080841304        0xc common/built-in.o
                                          0x7 (size before relaxing)
 .rodata.find_mmc_device.str1.1
                0x0000000080841304       0x19 drivers/mmc/built-in.o
 .rodata.fit_all_image_verify.str1.1
                0x000000008084131d       0x7a common/built-in.o
 .rodata.fit_conf_find_compat.str1.1
                0x0000000080841397       0x1b common/built-in.o
                                         0x1f (size before relaxing)
 .rodata.fit_conf_get_node.str1.1
                0x00000000808413b2        0x8 common/built-in.o
 .rodata.fit_conf_print.str1.1
                0x00000000808413b2       0x7b common/built-in.o
                                         0x99 (size before relaxing)
 .rodata.fit_get_desc.str1.1
                0x000000008084142d        0xc common/built-in.o
 .rodata.fit_get_timestamp.str1.1
                0x0000000080841439        0xa common/built-in.o
 .rodata.fit_image_get_address.str1.1
                0x0000000080841443       0x1d common/built-in.o
 .rodata.fit_image_get_arch.str1.1
                0x0000000080841460       0x1d common/built-in.o
                                          0x5 (size before relaxing)
 .rodata.fit_image_get_comp.str1.1
                0x0000000080841460        0xc common/built-in.o
 .rodata.fit_image_get_data.str1.1
                0x0000000080841460        0x5 common/built-in.o
 .rodata.fit_image_get_entry.str1.1
                0x0000000080841465        0x6 common/built-in.o
 .rodata.fit_image_get_load.str1.1
                0x000000008084146b        0x5 common/built-in.o
 .rodata.fit_image_get_node.str1.1
                0x000000008084146b        0x8 common/built-in.o
 .rodata.fit_image_get_os.str1.1
                0x000000008084146b        0x6 common/built-in.o
                                          0x3 (size before relaxing)
 .rodata.fit_image_get_type.str1.1
                0x000000008084146b        0x6 common/built-in.o
                                          0x5 (size before relaxing)
 .rodata.fit_image_hash_get_algo.str1.1
                0x000000008084146b        0x6 common/built-in.o
                                          0x5 (size before relaxing)
 .rodata.fit_image_hash_get_value.str1.1
                0x000000008084146b        0x6 common/built-in.o
 .rodata.fit_image_load.str1.1
                0x000000008084146b      0x1cd common/built-in.o
                                        0x1e0 (size before relaxing)
 .rodata.fit_image_print.str1.1
                0x0000000080841638       0xe3 common/built-in.o
                                         0xf0 (size before relaxing)
 .rodata.fit_image_print_data.str1.1
                0x000000008084171b       0x7a common/built-in.o
                                         0x88 (size before relaxing)
 .rodata.fit_image_verify.str1.1
                0x0000000080841795       0xfa common/built-in.o
 .rodata.fit_print_contents.str1.1
                0x000000008084188f       0x74 common/built-in.o
                                         0x78 (size before relaxing)
 .rodata.flush_dir_table.constprop.7.str1.1
                0x0000000080841903       0x21 fs/built-in.o
 .rodata.format_mac_pxe.constprop.7.str1.1
                0x0000000080841924       0x25 cmd/built-in.o
 .rodata.from_env.str1.1
                0x0000000080841949       0x22 cmd/built-in.o
 .rodata.fs_probe_unsupported.str1.1
                0x000000008084196b       0x24 fs/built-in.o
 .rodata.fs_read.str1.1
                0x000000008084198f       0x24 fs/built-in.o
 .rodata.fs_write.str1.1
                0x00000000808419b3       0x1f fs/built-in.o
 .rodata.g_dnl_bind.str1.1
                0x00000000808419d2       0x15 drivers/usb/gadget/built-in.o
 .rodata.g_dnl_register.str1.1
                0x00000000808419e7       0x18 drivers/usb/gadget/built-in.o
 .rodata.genimg_get_arch_id.str1.1
                0x00000000808419ff       0x54 common/built-in.o
                                          0x4 (size before relaxing)
 .rodata.genimg_get_arch_name.str1.1
                0x00000000808419ff       0x15 common/built-in.o
 .rodata.genimg_get_comp_id.str1.1
                0x0000000080841a14       0x15 common/built-in.o
                                          0xc (size before relaxing)
 .rodata.genimg_get_comp_name.str1.1
                0x0000000080841a14       0x14 common/built-in.o
 .rodata.genimg_get_os_id.str1.1
                0x0000000080841a28       0x14 common/built-in.o
                                          0x3 (size before relaxing)
 .rodata.genimg_get_os_name.str1.1
                0x0000000080841a28        0xb common/built-in.o
 .rodata.genimg_get_type_id.str1.1
                0x0000000080841a33        0xb common/built-in.o
                                          0x6 (size before relaxing)
 .rodata.genimg_get_type_name.str1.1
                0x0000000080841a33        0xe common/built-in.o
 .rodata.genimg_print_size.str1.1
                0x0000000080841a41        0xc common/built-in.o
                                          0xe (size before relaxing)
 .rodata.genimg_print_time.str1.1
                0x0000000080841a4d       0x22 common/built-in.o
 .rodata.genphy_update_link.str1.1
                0x0000000080841a6f       0x54 drivers/net/phy/built-in.o
                                         0x56 (size before relaxing)
 .rodata.get_cluster.str1.1
                0x0000000080841ac3       0x25 fs/built-in.o
 .rodata.get_descriptor_len.str1.1
                0x0000000080841ae8       0x64 common/built-in.o
 .rodata.get_fatent.str1.1
                0x0000000080841b4c       0x22 fs/built-in.o
 .rodata.get_local_var.str1.1
                0x0000000080841b6e        0x3 common/built-in.o
 .rodata.get_phy_device_by_mask.str1.1
                0x0000000080841b71       0x29 drivers/net/phy/built-in.o
 .rodata.get_pxe_file.str1.1
                0x0000000080841b9a        0x9 cmd/built-in.o
 .rodata.get_pxelinux_path.str1.1
                0x0000000080841b9a       0x3e cmd/built-in.o
 .rodata.get_relfile.str1.1
                0x0000000080841bd8       0x56 cmd/built-in.o
                                         0x63 (size before relaxing)
 .rodata.get_vfatname.str1.1
                0x0000000080841c2e       0x13 fs/built-in.o
 .rodata.getenv_bootm_low.str1.1
                0x0000000080841c41        0xa common/built-in.o
 .rodata.getenv_bootm_mapsize.str1.1
                0x0000000080841c4b        0xe common/built-in.o
 .rodata.getenv_bootm_size.str1.1
                0x0000000080841c59        0xb common/built-in.o
 .rodata.getenv_f.str1.1
                0x0000000080841c64       0x30 cmd/built-in.o
 .rodata.gpio_direction_input.str1.1
                0x0000000080841c94        0xa drivers/gpio/built-in.o
 .rodata.gpio_direction_output.str1.1
                0x0000000080841c9e        0xb drivers/gpio/built-in.o
 .rodata.gpio_get_description.str1.1
                0x0000000080841ca9        0xa cmd/built-in.o
                                         0x18 (size before relaxing)
 .rodata.gpio_get_status.str1.1
                0x0000000080841cb3       0x17 drivers/gpio/built-in.o
                                         0x19 (size before relaxing)
 .rodata.gpt_fill_pte.str1.1
                0x0000000080841cca       0x5b disk/built-in.o
 .rodata.gpt_verify_partitions.str1.1
                0x0000000080841d25      0x10b disk/built-in.o
 .rodata.gunzip.str1.1
                0x0000000080841e30       0x3e lib/built-in.o
 .rodata.handle_include.str1.1
                0x0000000080841e6e       0x33 cmd/built-in.o
 .rodata.handle_pxe_menu.str1.1
                0x0000000080841ea1       0x15 cmd/built-in.o
                                         0x18 (size before relaxing)
 .rodata.hang.str1.1
                0x0000000080841eb6       0x2a lib/built-in.o
 .rodata.hash_command.str1.1
                0x0000000080841ee0       0x58 common/built-in.o
                                         0x5f (size before relaxing)
 .rodata.header_desc
                0x0000000080841f38        0x5 drivers/usb/gadget/built-in.o
 .rodata.hex_asc
                0x0000000080841f3d       0x11 lib/built-in.o
 .rodata.hexport_r.str1.1
                0x0000000080841f4e       0x30 lib/built-in.o
 .rodata.himport_r.str1.1
                0x0000000080841f7e       0x99 lib/built-in.o
 .rodata.i2c_get_adapter.str1.1
                0x0000000080842017       0x2d drivers/i2c/built-in.o
 .rodata.image_info.str1.1
                0x0000000080842044      0x107 cmd/built-in.o
 .rodata.image_print_contents.str1.1
                0x000000008084214b       0xe1 common/built-in.o
                                         0xe5 (size before relaxing)
 .rodata.image_setup_libfdt.str1.1
                0x000000008084222c       0x8f common/built-in.o
 .rodata.inflate.str1.1
                0x00000000808422bb      0x158 lib/built-in.o
 .rodata.inflate_fast.str1.1
                0x0000000080842413       0x50 lib/built-in.o
 .rodata.init_baud_rate.str1.1
                0x0000000080842463        0x9 common/built-in.o
 .rodata.init_func_i2c.str1.1
                0x000000008084246c        0x8 common/built-in.o
                                          0xf (size before relaxing)
 .rodata.init_mmc_device.str1.1
                0x0000000080842474       0x1a cmd/built-in.o
 .rodata.init_mmc_for_env.str1.1
                0x000000008084248e       0x5e common/built-in.o
 .rodata.init_peripheral_ep.str1.1
                0x00000000808424ec        0x7 drivers/usb/musb-new/built-in.o
                                          0xf (size before relaxing)
 .rodata.initcall_run_list.str1.1
                0x00000000808424f3       0x31 lib/built-in.o
 .rodata.initr_env.str1.1
                0x0000000080842524        0x9 common/built-in.o
 .rodata.initr_ethaddr.str1.1
                0x0000000080842524        0x8 common/built-in.o
 .rodata.initr_mmc.str1.1
                0x0000000080842524        0x8 common/built-in.o
 .rodata.initr_net.str1.1
                0x000000008084252c        0x8 common/built-in.o
 .rodata.insert_var_value_sub.str1.1
                0x0000000080842534        0x6 common/built-in.o
 .rodata.ip_to_string.str1.1
                0x000000008084253a        0xc net/built-in.o
 .rodata.is_gpt_valid.str1.1
                0x0000000080842546       0xc4 disk/built-in.o
 .rodata.label_boot.str1.1
                0x000000008084260a      0x15e cmd/built-in.o
                                        0x19c (size before relaxing)
 .rodata.label_print.str1.1
                0x0000000080842768        0x8 cmd/built-in.o
 .rodata.list_sort.str1.1
                0x0000000080842770       0x34 lib/built-in.o
 .rodata.lists_bind_drivers.str1.1
                0x00000000808427a4       0x1a drivers/built-in.o
 .rodata.lmb_alloc_base.str1.1
                0x00000000808427be       0x34 lib/built-in.o
 .rodata.load_serial.str1.1
                0x00000000808427f2       0x65 cmd/built-in.o
 .rodata.load_serial_ymodem.str1.1
                0x0000000080842857       0x31 cmd/built-in.o
                                         0x35 (size before relaxing)
 .rodata.lzop_magic
                0x0000000080842888        0x9 lib/built-in.o
 .rodata.main_loop.str1.1
                0x0000000080842891       0x11 common/built-in.o
                                         0x15 (size before relaxing)
 .rodata.manufacturer
                0x00000000808428a2       0x12 drivers/usb/gadget/built-in.o
 .rodata.match.str1.1
                0x00000000808428b4       0x18 lib/built-in.o
 .rodata.match_entry.str1.1
                0x00000000808428cc       0x1b lib/built-in.o
 .rodata.match_string.str1.1
                0x00000000808428cc       0x2c lib/built-in.o
 .rodata.mdio_list_devices.str1.1
                0x00000000808428f8       0x12 common/built-in.o
                                         0x19 (size before relaxing)
 .rodata.mdio_phydev_for_ethname.str1.1
                0x000000008084290a       0x1c common/built-in.o
 .rodata.mdio_register.str1.1
                0x0000000080842926       0x2c common/built-in.o
 .rodata.menu_get_choice.str1.1
                0x0000000080842952       0x1d common/built-in.o
                                         0x2a (size before relaxing)
 .rodata.miiphy_duplex.str1.1
                0x000000008084296f       0x5a common/built-in.o
                                         0x68 (size before relaxing)
 .rodata.miiphy_get_dev_by_name.str1.1
                0x00000000808429c9       0x13 common/built-in.o
 .rodata.miiphy_is_1000base_x.str1.1
                0x00000000808429dc       0x39 common/built-in.o
 .rodata.miiphy_listdev.str1.1
                0x0000000080842a15       0x2a common/built-in.o
 .rodata.miiphy_set_current_dev.str1.1
                0x0000000080842a3f       0x14 common/built-in.o
 .rodata.miiphy_speed.str1.1
                0x0000000080842a53       0x5b common/built-in.o
 .rodata.mmc_berase.str1.1
                0x0000000080842aae       0x6f drivers/mmc/built-in.o
 .rodata.mmc_block_op.str1.1
                0x0000000080842b1d       0x99 drivers/built-in.o
 .rodata.mmc_bread.str1.1
                0x0000000080842bb6       0x47 drivers/mmc/built-in.o
 .rodata.mmc_bwrite.str1.1
                0x0000000080842bfd       0x12 drivers/mmc/built-in.o
                                         0x59 (size before relaxing)
 .rodata.mmc_file_op.str1.1
                0x0000000080842c0f       0x68 drivers/built-in.o
                                         0x7d (size before relaxing)
 .rodata.mmc_hwpart_config.str1.1
                0x0000000080842c77      0x19f drivers/mmc/built-in.o
 .rodata.mmc_init_stream.str1.1
                0x0000000080842e16       0x3d drivers/mmc/built-in.o
 .rodata.mmc_reset_controller_fsm.str1.1
                0x0000000080842e53       0x2d drivers/mmc/built-in.o
 .rodata.mmc_send_status.str1.1
                0x0000000080842e80       0x32 drivers/mmc/built-in.o
 .rodata.mmc_start_init.str1.1
                0x0000000080842eb2       0x3f drivers/mmc/built-in.o
 .rodata.mmc_startup.str1.1
                0x0000000080842ef1       0x38 drivers/mmc/built-in.o
                                         0x3e (size before relaxing)
 .rodata.mod_i2c_mem.isra.5.part.6.str1.1
                0x0000000080842f29       0x21 cmd/built-in.o
                                         0x28 (size before relaxing)
 .rodata.mod_mem.isra.2.part.3.str1.1
                0x0000000080842f4a        0xc cmd/built-in.o
                                         0x1d (size before relaxing)
 .rodata.mtd_arg_off.str1.1
                0x0000000080842f56       0x38 drivers/mtd/built-in.o
 .rodata.mtd_arg_off_size.str1.1
                0x0000000080842f8e       0x5b drivers/mtd/built-in.o
                                         0x71 (size before relaxing)
 .rodata.multipliers
                0x0000000080842fe9       0x10 drivers/mmc/built-in.o
 .rodata.musb_driver_name
                0x0000000080842ff9        0xa drivers/usb/musb-new/built-in.o
                0x0000000080842ff9                musb_driver_name
 .rodata.musb_g_ep0_irq.str1.1
                0x0000000080843003       0xae drivers/usb/musb-new/built-in.o
                                         0xb0 (size before relaxing)
 .rodata.musb_h_ep0_flush_fifo.str1.1
                0x00000000808430b1       0x2b drivers/usb/musb-new/built-in.o
 .rodata.musb_h_ep0_irq.str1.1
                0x00000000808430dc       0x34 drivers/usb/musb-new/built-in.o
 .rodata.musb_host_rx.str1.1
                0x0000000080843110       0x2f drivers/usb/musb-new/built-in.o
 .rodata.musb_init_controller.str1.1
                0x000000008084313f       0xbc drivers/usb/musb-new/built-in.o
                                         0xe2 (size before relaxing)
 .rodata.musb_lowlevel_init.str1.1
                0x00000000808431fb       0x1d drivers/usb/musb-new/built-in.o
 .rodata.musb_start_urb.str1.1
                0x0000000080843218       0x48 drivers/usb/musb-new/built-in.o
 .rodata.musb_test_packet
                0x0000000080843260       0x35 drivers/usb/musb-new/built-in.o
 .rodata.names.8278
                0x0000000080843295        0x6 lib/built-in.o
 .rodata.net_auto_load.str1.1
                0x000000008084329b        0xd net/built-in.o
 .rodata.net_bcast_ethaddr
                0x00000000808432a8        0x6 net/built-in.o
                0x00000000808432a8                net_bcast_ethaddr
 .rodata.net_loop.str1.1
                0x00000000808432ae       0xe5 net/built-in.o
                                         0xf7 (size before relaxing)
 .rodata.net_null_ethaddr
                0x0000000080843393        0x6 net/built-in.o
                0x0000000080843393                net_null_ethaddr
 .rodata.net_process_received_packet.str1.1
                0x0000000080843399       0x1d net/built-in.o
 .rodata.net_start_again.str1.1
                0x00000000808433b6        0x5 net/built-in.o
                                         0x15 (size before relaxing)
 .rodata.netboot_common.str1.1
                0x00000000808433bb       0x1d cmd/built-in.o
                                         0x51 (size before relaxing)
 .rodata.nfs_handler.str1.1
                0x00000000808433d8       0x56 net/built-in.o
 .rodata.nfs_lookup_reply.str1.1
                0x000000008084342e       0x25 net/built-in.o
                                         0x27 (size before relaxing)
 .rodata.nfs_read_reply.isra.0.str1.1
                0x0000000080843453        0x4 net/built-in.o
 .rodata.nfs_readlink_reply.str1.1
                0x0000000080843457        0x2 net/built-in.o
 .rodata.nfs_start.str1.1
                0x0000000080843457       0x1e net/built-in.o
                                         0x1f (size before relaxing)
 .rodata.nfs_timeout_handler.str1.1
                0x0000000080843475       0x2a net/built-in.o
 .rodata.omap24_get_base.isra.0.str1.1
                0x000000008084349f       0x14 drivers/i2c/built-in.o
 .rodata.omap24_i2c_init.str1.1
                0x00000000808434b3       0x45 drivers/i2c/built-in.o
 .rodata.omap24_i2c_probe.str1.1
                0x00000000808434f8       0x3e drivers/i2c/built-in.o
 .rodata.omap24_i2c_read.str1.1
                0x0000000080843536      0x15c drivers/i2c/built-in.o
 .rodata.omap24_i2c_setspeed.str1.1
                0x0000000080843692       0x4b drivers/i2c/built-in.o
 .rodata.omap24_i2c_write.str1.1
                0x00000000808436dd      0x1d6 drivers/i2c/built-in.o
 .rodata.omap_hsmmc_init_setup.str1.1
                0x00000000808438b3       0x28 drivers/mmc/built-in.o
 .rodata.omap_hsmmc_send_cmd.str1.1
                0x00000000808438db       0x9d drivers/mmc/built-in.o
 .rodata.omap_hsmmc_set_ios.str1.1
                0x0000000080843978       0x1f drivers/mmc/built-in.o
 .rodata.omap_mmc_init.str1.1
                0x0000000080843997       0x1a drivers/mmc/built-in.o
 .rodata.on_baudrate.str1.1
                0x00000000808439b1       0x42 drivers/serial/built-in.o
                                         0x74 (size before relaxing)
 .rodata.on_callbacks.str1.1
                0x00000000808439f3       0xf4 common/built-in.o
 .rodata.on_console.str1.1
                0x0000000080843ae7       0x5e common/built-in.o
                                         0x27 (size before relaxing)
 .rodata.on_ethaddr.str1.1
                0x0000000080843ae7        0x4 net/built-in.o
 .rodata.on_flags.str1.1
                0x0000000080843ae7       0x50 common/built-in.o
 .rodata.parse_integer.str1.1
                0x0000000080843b37       0x17 cmd/built-in.o
 .rodata.parse_pxefile_top.str1.1
                0x0000000080843b4e       0x89 cmd/built-in.o
 .rodata.parse_sliteral.str1.1
                0x0000000080843bd7       0x1f cmd/built-in.o
 .rodata.parse_stream_outer.str1.1
                0x0000000080843bf6       0x4d common/built-in.o
 .rodata.parse_string_outer.str1.1
                0x0000000080843c43        0x2 common/built-in.o
 .rodata.part_get_info_efi.str1.1
                0x0000000080843c43        0xa disk/built-in.o
 .rodata.part_get_info_extended.str1.1
                0x0000000080843c43        0xa disk/built-in.o
                                         0x11 (size before relaxing)
 .rodata.part_get_info_iso_verb.str1.1
                0x0000000080843c4d      0x1bf disk/built-in.o
                                        0x1c6 (size before relaxing)
 .rodata.part_print.str1.1
                0x0000000080843e0c       0x82 disk/built-in.o
                                         0x8b (size before relaxing)
 .rodata.part_print_dos.str1.1
                0x0000000080843e8e       0x2a disk/built-in.o
 .rodata.part_print_efi.str1.1
                0x0000000080843eb8       0xf9 disk/built-in.o
 .rodata.part_print_iso.str1.1
                0x0000000080843fb1       0x68 disk/built-in.o
 .rodata.part_set_generic_name.str1.1
                0x0000000080844019        0x7 disk/built-in.o
                                          0xa (size before relaxing)
 .rodata.phy_connect.str1.1
                0x0000000080844020       0x23 drivers/net/phy/built-in.o
 .rodata.phy_connect_dev.str1.1
                0x0000000080844043       0x2f drivers/net/phy/built-in.o
 .rodata.phy_reset.str1.1
                0x0000000080844072       0x15 drivers/net/phy/built-in.o
 .rodata.ping_start.str1.1
                0x0000000080844087       0x11 net/built-in.o
 .rodata.print_buffer.str1.1
                0x0000000080844098        0x6 lib/built-in.o
                                         0x17 (size before relaxing)
 .rodata.print_cpuinfo.str1.1
                0x000000008084409e       0x3b arch/arm/mach-omap2/built-in.o
                                         0x3d (size before relaxing)
 .rodata.print_data.str1.1
                0x00000000808440d9       0x27 cmd/built-in.o
                                         0x32 (size before relaxing)
 .rodata.print_freq.str1.1
                0x0000000080844100       0x1b lib/built-in.o
 .rodata.print_jrnl_status.str1.1
                0x000000008084411b       0x34 fs/built-in.o
 .rodata.print_mmc_devices.str1.1
                0x000000008084414f        0xd drivers/mmc/built-in.o
                                         0x1c (size before relaxing)
 .rodata.print_num.str1.1
                0x000000008084415c       0x10 cmd/built-in.o
 .rodata.print_partition_extended.str1.1
                0x000000008084416c       0x83 disk/built-in.o
                                         0x84 (size before relaxing)
 .rodata.print_size.str1.1
                0x00000000808441ef       0x15 lib/built-in.o
 .rodata.product
                0x0000000080844204       0x14 drivers/usb/gadget/built-in.o
 .rodata.put_ext4.str1.1
                0x0000000080844218       0x42 fs/built-in.o
 .rodata.quantifier.str1.1
                0x000000008084425a       0x17 lib/built-in.o
 .rodata.read_allocated_block.str1.1
                0x0000000080844271      0x240 fs/built-in.o
 .rodata.read_bootsectandvi.str1.1
                0x00000000808444b1       0x1b fs/built-in.o
 .rodata.realloc.str1.1
                0x00000000808444cc       0x25 common/built-in.o
 .rodata.regex_callback.str1.1
                0x00000000808444f1       0x20 common/built-in.o
 .rodata.request_and_set_gpio.str1.1
                0x0000000080844511       0x3b board/ti/am335x/built-in.o
 .rodata.rndis_command_complete.str1.1
                0x000000008084454c       0x2f drivers/usb/gadget/built-in.o
 .rodata.rndis_control_ack_complete.str1.1
                0x000000008084457b       0x17 drivers/usb/gadget/built-in.o
 .rodata.rndis_control_intf
                0x0000000080844592        0x9 drivers/usb/gadget/built-in.o
 .rodata.rndis_data_intf
                0x000000008084459b        0x9 drivers/usb/gadget/built-in.o
 .rodata.run_list_real.str1.1
                0x00000000808445a4       0x45 common/built-in.o
                                         0x4b (size before relaxing)
 .rodata.run_usb_dnl_gadget.str1.1
                0x00000000808445e9       0x99 common/built-in.o
                                         0x9f (size before relaxing)
 .rodata.rx_handler_command.str1.1
                0x0000000080844682       0x98 drivers/usb/gadget/built-in.o
 .rodata.rx_handler_dl_image.str1.1
                0x000000008084471a       0x33 drivers/usb/gadget/built-in.o
 .rodata.rx_submit.constprop.10.str1.1
                0x000000008084474d       0x27 drivers/usb/gadget/built-in.o
 .rodata.saveenv.str1.1
                0x0000000080844774       0x24 common/built-in.o
                                         0x37 (size before relaxing)
 .rodata.serial_init.str1.1
                0x0000000080844798       0x17 drivers/serial/built-in.o
 .rodata.set_board_info_env.str1.1
                0x00000000808447af       0x22 board/ti/common/built-in.o
 .rodata.set_default_env.str1.1
                0x00000000808447d1       0x5e common/built-in.o
                                         0x9b (size before relaxing)
 .rodata.set_ether_config.isra.5.str1.1
                0x000000008084482f       0x2b drivers/usb/gadget/built-in.o
 .rodata.set_gpt_info.isra.0.constprop.2.str1.1
                0x000000008084485a       0x30 cmd/built-in.o
                                         0x50 (size before relaxing)
 .rodata.set_local_var.str1.1
                0x000000008084488a       0x59 common/built-in.o
 .rodata.set_protective_mbr.str1.1
                0x00000000808448e3       0x34 disk/built-in.o
 .rodata.set_working_fdt_addr.str1.1
                0x0000000080844917        0x8 cmd/built-in.o
 .rodata.setenv.str1.1
                0x000000008084491f        0x7 cmd/built-in.o
 .rodata.setenv_hex.str1.1
                0x0000000080844926        0x4 cmd/built-in.o
 .rodata.setup_clock_synthesizer.str1.1
                0x0000000080844926       0x4f arch/arm/mach-omap2/built-in.o
 .rodata.sha1_padding
                0x0000000080844975       0x40 lib/built-in.o
 .rodata.show_devices.str1.1
                0x00000000808449b5       0x21 drivers/built-in.o
                                         0x2a (size before relaxing)
 .rodata.show_dram_config.str1.1
                0x00000000808449d6        0x1 common/built-in.o
 .rodata.show_regs.str1.1
                0x00000000808449d6       0xff arch/arm/lib/built-in.o
                                        0x129 (size before relaxing)
 .rodata.smbios_guid
                0x0000000080844ad5       0x10 lib/built-in.o
 .rodata.smbios_write_type0.str1.1
                0x0000000080844ae5        0xb lib/built-in.o
                                         0x1a (size before relaxing)
 .rodata.smbios_write_type1.str1.1
                0x0000000080844af0        0x8 lib/built-in.o
 .rodata.smbios_write_type2.str1.1
                0x0000000080844af0        0x7 lib/built-in.o
 .rodata.smbios_write_type3.str1.1
                0x0000000080844af7        0x7 lib/built-in.o
                                          0x3 (size before relaxing)
 .rodata.smbios_write_type4.str1.1
                0x0000000080844af7        0x8 lib/built-in.o
 .rodata.source.str1.1
                0x0000000080844af7       0xfe cmd/built-in.o
                                        0x114 (size before relaxing)
 .rodata.spi_flash_cmd_erase_ops.str1.1
                0x0000000080844bf5       0x2f drivers/mtd/spi/built-in.o
 .rodata.spi_flash_cmd_write_ops.str1.1
                0x0000000080844c24       0x30 drivers/mtd/spi/built-in.o
 .rodata.spi_flash_scan.str1.1
                0x0000000080844c54      0x138 drivers/mtd/spi/built-in.o
                                        0x13b (size before relaxing)
 .rodata.spi_flash_write_common.str1.1
                0x0000000080844d8c        0xe drivers/mtd/spi/built-in.o
 .rodata.spi_setup_slave.str1.1
                0x0000000080844d9a       0xf9 drivers/spi/built-in.o
 .rodata.spi_xfer.str1.1
                0x0000000080844e93       0x63 drivers/spi/built-in.o
 .rodata.state_dfu_manifest.str1.1
                0x0000000080844ef6       0x24 drivers/usb/gadget/built-in.o
 .rodata.stdio_add_devices.str1.1
                0x0000000080844f1a        0x7 common/built-in.o
 .rodata.store_char_in_data.str1.1
                0x0000000080844f1a       0x1f lib/built-in.o
 .rodata.str1.1
                0x0000000080844f39       0xeb arch/arm/lib/built-in.o
 .rodata.str1.1
                0x0000000080845024       0x33 arch/arm/mach-omap2/built-in.o
 .rodata.str1.1
                0x0000000080845057     0x38a3 cmd/built-in.o
                                       0x3be5 (size before relaxing)
 .rodata.str1.1
                0x00000000808488fa      0x70e common/built-in.o
                                        0x799 (size before relaxing)
 .rodata.str1.1
                0x0000000080849008       0x1f disk/built-in.o
                                         0x22 (size before relaxing)
 .rodata.str1.1
                0x0000000080849027       0x56 drivers/built-in.o
                                         0x6f (size before relaxing)
 .rodata.str1.1
                0x000000008084907d       0x37 drivers/gpio/built-in.o
                                         0x5b (size before relaxing)
 .rodata.str1.1
                0x00000000808490b4       0x1b drivers/i2c/built-in.o
 .rodata.str1.1
                0x00000000808490cf        0x4 drivers/mmc/built-in.o
 .rodata.str1.1
                0x00000000808490cf       0x95 drivers/mtd/spi/built-in.o
 .rodata.str1.1
                0x0000000080849164       0xb8 drivers/net/phy/built-in.o
                                         0xcc (size before relaxing)
 .rodata.str1.1
                0x000000008084921c       0x1f drivers/serial/built-in.o
 .rodata.str1.1
                0x000000008084921c       0x51 drivers/usb/gadget/built-in.o
                                         0x73 (size before relaxing)
 .rodata.str1.1
                0x000000008084926d       0x1f drivers/usb/musb-new/built-in.o
                                         0x2c (size before relaxing)
 .rodata.str1.1
                0x000000008084928c        0xc fs/built-in.o
                                         0x15 (size before relaxing)
 .rodata.str1.1
                0x0000000080849298      0x16d lib/built-in.o
                                        0x16e (size before relaxing)
 .rodata.str1.1
                0x0000000080849405        0x6 net/built-in.o
                                         0x3e (size before relaxing)
 .rodata.str1.1
                0x000000008084940b       0xdc test/dm/built-in.o
                                         0xe2 (size before relaxing)
 .rodata.string.str1.1
                0x00000000808494e7        0x7 lib/built-in.o
 .rodata.submit_urb.constprop.8.str1.1
                0x00000000808494ee       0x25 drivers/usb/musb-new/built-in.o
 .rodata.syntax_err.str1.1
                0x0000000080849513        0xe common/built-in.o
 .rodata.tab_seq
                0x0000000080849521        0x9 common/built-in.o
 .rodata.test_block_type.str1.1
                0x000000008084952a        0xa disk/built-in.o
 .rodata.tftp_handler.str1.1
                0x0000000080849534       0x72 net/built-in.o
                                         0x80 (size before relaxing)
 .rodata.tftp_send.str1.1
                0x00000000808495a6       0x36 net/built-in.o
                                         0x42 (size before relaxing)
 .rodata.tftp_start.str1.1
                0x00000000808495dc      0x156 net/built-in.o
                                        0x181 (size before relaxing)
 .rodata.tftp_timeout_handler.str1.1
                0x0000000080849732       0x2a net/built-in.o
                                         0x2d (size before relaxing)
 .rodata.u_boot_hush_start.str1.1
                0x000000008084975c       0x12 common/built-in.o
 .rodata.uclass_resolve_seq.str1.1
                0x000000008084976e       0x27 drivers/built-in.o
 .rodata.union_desc
                0x0000000080849795        0x5 drivers/usb/gadget/built-in.o
 .rodata.update_tftp.str1.1
                0x000000008084979a      0x19e common/built-in.o
                                        0x1ac (size before relaxing)
 .rodata.us_direction
                0x0000000080849938       0x20 common/built-in.o
 .rodata.usb_alloc_new_device.str1.1
                0x0000000080849958       0x25 common/built-in.o
 .rodata.usb_composite_register.str1.1
                0x000000008084997d        0xa drivers/usb/gadget/built-in.o
 .rodata.usb_display_class_sub.str1.1
                0x0000000080849987       0xb6 cmd/built-in.o
                                         0xbc (size before relaxing)
 .rodata.usb_display_config.str1.1
                0x0000000080849a3d      0x105 cmd/built-in.o
                                        0x11a (size before relaxing)
 .rodata.usb_display_desc.part.1.str1.1
                0x0000000080849b42       0xac cmd/built-in.o
 .rodata.usb_display_string.str1.1
                0x0000000080849bee        0xd cmd/built-in.o
 .rodata.usb_eth_init.str1.1
                0x0000000080849bfb       0xed drivers/usb/gadget/built-in.o
                                         0xfc (size before relaxing)
 .rodata.usb_eth_initialize.str1.1
                0x0000000080849ce8        0xa drivers/usb/gadget/built-in.o
 .rodata.usb_eth_recv.str1.1
                0x0000000080849cf2       0x2a drivers/usb/gadget/built-in.o
 .rodata.usb_eth_send.str1.1
                0x0000000080849d1c       0x7a drivers/usb/gadget/built-in.o
 .rodata.usb_find_usb2_hub_address_port.str1.1
                0x0000000080849d96       0x36 common/built-in.o
 .rodata.usb_gadget_register_driver.str1.1
                0x0000000080849dcc       0x5c drivers/usb/musb-new/built-in.o
 .rodata.usb_get_class_desc.str1.1
                0x0000000080849e28       0x64 cmd/built-in.o
                                         0x65 (size before relaxing)
 .rodata.usb_get_configuration_len.str1.1
                0x0000000080849e8c       0x58 common/built-in.o
 .rodata.usb_hub_configure.str1.1
                0x0000000080849ee4       0x80 common/built-in.o
 .rodata.usb_hub_port_connect_change.str1.1
                0x0000000080849f64       0x39 common/built-in.o
 .rodata.usb_init.str1.1
                0x0000000080849f9d       0xb3 common/built-in.o
 .rodata.usb_select_config.str1.1
                0x000000008084a050      0x220 common/built-in.o
 .rodata.usb_set_interface.str1.1
                0x000000008084a270       0x1f common/built-in.o
 .rodata.usb_setup_device.str1.1
                0x000000008084a28f       0x91 common/built-in.o
 .rodata.usb_show_tree_graph.str1.1
                0x000000008084a320       0x2b cmd/built-in.o
                                         0x3a (size before relaxing)
 .rodata.usb_stop.str1.1
                0x000000008084a34b       0x22 common/built-in.o
 .rodata.usb_stor_CBI_get_status.isra.4.str1.1
                0x000000008084a36d       0x1f common/built-in.o
 .rodata.usb_stor_CB_transport.str1.1
                0x000000008084a38c       0x6e common/built-in.o
 .rodata.usb_stor_get_info.str1.1
                0x000000008084a3fa       0x5d common/built-in.o
 .rodata.usb_stor_info.str1.1
                0x000000008084a457       0x32 common/built-in.o
                                         0x40 (size before relaxing)
 .rodata.usb_stor_scan.str1.1
                0x000000008084a489       0x75 common/built-in.o
 .rodata.usb_storage_probe.str1.1
                0x000000008084a4fe       0x5c common/built-in.o
 .rodata.uuid_bin_to_str.str1.1
                0x000000008084a55a        0x5 lib/built-in.o
 .rodata.valid_elf_image.str1.1
                0x000000008084a55a       0x52 cmd/built-in.o
 .rodata.validate_gpt_entries.str1.1
                0x000000008084a5ac       0x40 disk/built-in.o
 .rodata.validate_gpt_header.str1.1
                0x000000008084a5ec       0xe1 disk/built-in.o
 .rodata.var_complete.str1.1
                0x000000008084a6cd        0x1 common/built-in.o
 .rodata.version_string
                0x000000008084a6cd       0x2e cmd/built-in.o
                0x000000008084a6cd                version_string
 .rodata.wait_for_bb.str1.1
                0x000000008084a6fb       0x27 drivers/i2c/built-in.o
 .rodata.wait_for_event.str1.1
                0x000000008084a722       0x61 drivers/i2c/built-in.o
 .rodata.write_smbios_table.str1.1
                0x000000008084a783        0xb lib/built-in.o
 .rodata.xmalloc.str1.1
                0x000000008084a78e       0x1e common/built-in.o
 .rodata.xyzModem_error.str1.1
                0x000000008084a7ac        0xe common/built-in.o
 .rodata.xyzModem_stream_close.str1.1
                0x000000008084a7ba       0x47 common/built-in.o
                                         0x4b (size before relaxing)
 .rodata.xyzModem_stream_open.str1.1
                0x000000008084a801        0x2 common/built-in.o
 .rodata.zunzip.str1.1
                0x000000008084a801       0x47 lib/built-in.o
                0x000000008084a848                . = ALIGN (0x4)

.data           0x000000008084a848     0x2cd0
 *(.data*)
 .data.rel.ro   0x000000008084a848        0x0 arch/arm/cpu/armv7/start.o
 .data.cdce913_data
                0x000000008084a848       0x14 board/ti/am335x/built-in.o
 .data.cpsw_data
                0x000000008084a85c       0x4c board/ti/am335x/built-in.o
 .data.cpsw_slaves
                0x000000008084a8a8       0x28 board/ti/am335x/built-in.o
 .data.cstat    0x000000008084a8d0        0x4 arch/arm/mach-omap2/built-in.o
                0x000000008084a8d0                cstat
 .data.musb_config
                0x000000008084a8d4       0x18 arch/arm/mach-omap2/built-in.o
 .data.otg0_board_data
                0x000000008084a8ec       0x14 arch/arm/mach-omap2/built-in.o
                0x000000008084a8ec                otg0_board_data
 .data.otg0_plat
                0x000000008084a900       0x20 arch/arm/mach-omap2/built-in.o
 .data.otg1_board_data
                0x000000008084a920       0x14 arch/arm/mach-omap2/built-in.o
                0x000000008084a920                otg1_board_data
 .data.otg1_plat
                0x000000008084a934       0x20 arch/arm/mach-omap2/built-in.o
 .data.bootm_help_text
                0x000000008084a954      0x4cf cmd/built-in.o
 *fill*         0x000000008084ae23        0x1 
 .data.cmd_bootm_sub
                0x000000008084ae24       0xfc cmd/built-in.o
 .data.source_help_text
                0x000000008084af20       0xac cmd/built-in.o
 .data.bootefi_device_obj
                0x000000008084afcc       0x2c cmd/built-in.o
 .data.bootefi_device_path
                0x000000008084aff8       0x88 cmd/built-in.o
 .data.bootefi_help_text
                0x000000008084b080       0xbf cmd/built-in.o
 *fill*         0x000000008084b13f        0x1 
 .data.bootefi_image_path
                0x000000008084b140       0x88 cmd/built-in.o
 .data.loaded_image_info
                0x000000008084b1c8       0x60 cmd/built-in.o
 .data.loaded_image_info_obj
                0x000000008084b228       0x2c cmd/built-in.o
 .data.bootz_help_text
                0x000000008084b254      0x208 cmd/built-in.o
 .data.fdt_help_text
                0x000000008084b45c      0x60a cmd/built-in.o
 .data.root.8293
                0x000000008084ba66        0x2 cmd/built-in.o
 .data.tabs.8377
                0x000000008084ba68       0x21 cmd/built-in.o
 *fill*         0x000000008084ba89        0x3 
 .data.cmd_i2c_sub
                0x000000008084ba8c      0x16c cmd/built-in.o
 .data.i2c_dp_last_length
                0x000000008084bbf8        0x4 cmd/built-in.o
 .data.i2c_help_text
                0x000000008084bbfc      0x37c cmd/built-in.o
 .data.do_echo  0x000000008084bf78        0x4 cmd/built-in.o
 .data.dp_last_length
                0x000000008084bf7c        0x4 cmd/built-in.o
 .data.cmd_mmc  0x000000008084bf80      0x118 cmd/built-in.o
 .data.curr_device
                0x000000008084c098        0x4 cmd/built-in.o
 .data.cmd_pxe_sub
                0x000000008084c09c       0x38 cmd/built-in.o
 .data.pxe_default_paths
                0x000000008084c0d4       0x10 cmd/built-in.o
                0x000000008084c0d4                pxe_default_paths
 .data.usb_stor_curr_dev
                0x000000008084c0e4        0x4 cmd/built-in.o
 .data.imgextract_help_text
                0x000000008084c0e8       0xb2 cmd/built-in.o
 *fill*         0x000000008084c19a        0x2 
 .data.__compound_literal.0
                0x000000008084c19c       0x20 cmd/built-in.o
 .data.__compound_literal.1
                0x000000008084c1bc       0x1c cmd/built-in.o
 .data.cmd_spl_export_sub
                0x000000008084c1d8       0x38 cmd/built-in.o
 .data.cmd_spl_sub
                0x000000008084c210       0x1c cmd/built-in.o
 .data.cmd_env_sub
                0x000000008084c22c      0x134 cmd/built-in.o
 .data.env_help_text
                0x000000008084c360      0x28c cmd/built-in.o
 .data.env_id   0x000000008084c5ec        0x4 cmd/built-in.o
 .data.hash_algo
                0x000000008084c5f0       0x54 common/built-in.o
 .data.reserved_list
                0x000000008084c644       0x84 common/built-in.o
 .data.init_sequence_f
                0x000000008084c6c8       0xb0 common/built-in.o
 .data.init_sequence_r
                0x000000008084c778       0x94 common/built-in.o
                0x000000008084c778                init_sequence_r
 .data.first_call
                0x000000008084c80c        0x8 common/built-in.o
 .data.env_name_spec
                0x000000008084c814        0x4 common/built-in.o
                0x000000008084c814                env_name_spec
 .data.usb_scan_list
                0x000000008084c818        0x8 common/built-in.o
 .data.env_htab
                0x000000008084c820       0x10 common/built-in.o
                0x000000008084c820                env_htab
 .data.av_      0x000000008084c830      0x408 common/built-in.o
 .data.sbrk_base
                0x000000008084cc38        0x4 common/built-in.o
 .data.trim_threshold
                0x000000008084cc3c        0x4 common/built-in.o
 .data.load_addr
                0x000000008084cc40        0x4 common/built-in.o
                0x000000008084cc40                load_addr
 .data.stdio_names
                0x000000008084cc44        0xc common/built-in.o
                0x000000008084cc44                stdio_names
 .data.hist_cur
                0x000000008084cc50        0x4 common/built-in.o
 .data.system_guid
                0x000000008084cc54       0x10 disk/built-in.o
 .data.dfu_list
                0x000000008084cc64        0x8 drivers/built-in.o
 .data.month_days
                0x000000008084cc6c       0x30 drivers/built-in.o
 .data.wdt_trgr_pattern
                0x000000008084cc9c        0x4 drivers/built-in.o
 .data.cur_dev_num
                0x000000008084cca0        0x4 drivers/mmc/built-in.o
 .data.genphy_driver
                0x000000008084cca4       0x34 drivers/net/phy/built-in.o
 .data.phy_drivers
                0x000000008084ccd8        0x8 drivers/net/phy/built-in.o
 .data.AR8021_driver
                0x000000008084cce0       0x34 drivers/net/phy/built-in.o
 .data.AR8031_driver
                0x000000008084cd14       0x34 drivers/net/phy/built-in.o
 .data.AR8035_driver
                0x000000008084cd48       0x34 drivers/net/phy/built-in.o
 .data.lan8700_driver
                0x000000008084cd7c       0x34 drivers/net/phy/built-in.o
 .data.lan8710_driver
                0x000000008084cdb0       0x34 drivers/net/phy/built-in.o
 .data.lan8740_driver
                0x000000008084cde4       0x34 drivers/net/phy/built-in.o
 .data.lan911x_driver
                0x000000008084ce18       0x34 drivers/net/phy/built-in.o
 .data.composite_driver
                0x000000008084ce4c       0x24 drivers/usb/gadget/built-in.o
 .data.device_desc
                0x000000008084ce70       0x24 drivers/usb/gadget/built-in.o
 .data.g_dnl_composite_strings
                0x000000008084ce94        0x8 drivers/usb/gadget/built-in.o
 .data.g_dnl_driver
                0x000000008084ce9c       0x20 drivers/usb/gadget/built-in.o
 .data.g_dnl_string_defs
                0x000000008084cebc       0x20 drivers/usb/gadget/built-in.o
 .data.g_dnl_string_tab
                0x000000008084cedc        0x8 drivers/usb/gadget/built-in.o
 .data.dfu_generic_strings
                0x000000008084cee4        0x8 drivers/usb/gadget/built-in.o
 .data.dfu_intf_runtime
                0x000000008084ceec        0x9 drivers/usb/gadget/built-in.o
 *fill*         0x000000008084cef5        0x3 
 .data.dfu_runtime_descs
                0x000000008084cef8        0x8 drivers/usb/gadget/built-in.o
 .data.dfu_strings
                0x000000008084cf00        0x8 drivers/usb/gadget/built-in.o
 .data.strings_dfu_generic
                0x000000008084cf08       0x10 drivers/usb/gadget/built-in.o
 .data.stringtab_dfu
                0x000000008084cf18        0x8 drivers/usb/gadget/built-in.o
 .data.stringtab_dfu_generic
                0x000000008084cf20        0x8 drivers/usb/gadget/built-in.o
 .data.fastboot_string_defs
                0x000000008084cf28       0x10 drivers/usb/gadget/built-in.o
 .data.fastboot_strings
                0x000000008084cf38        0x8 drivers/usb/gadget/built-in.o
 .data.fb_fs_function
                0x000000008084cf40        0xc drivers/usb/gadget/built-in.o
 .data.fb_hs_function
                0x000000008084cf4c       0x10 drivers/usb/gadget/built-in.o
 .data.fs_ep_in
                0x000000008084cf5c        0x9 drivers/usb/gadget/built-in.o
 .data.fs_ep_out
                0x000000008084cf65        0x9 drivers/usb/gadget/built-in.o
 .data.hs_ep_in
                0x000000008084cf6e        0x9 drivers/usb/gadget/built-in.o
 .data.hs_ep_out
                0x000000008084cf77        0x9 drivers/usb/gadget/built-in.o
 .data.interface_desc
                0x000000008084cf80        0x9 drivers/usb/gadget/built-in.o
 *fill*         0x000000008084cf89        0x3 
 .data.stringtab_fastboot
                0x000000008084cf8c        0x8 drivers/usb/gadget/built-in.o
 .data.dev_qualifier
                0x000000008084cf94        0xa drivers/usb/gadget/built-in.o
 .data.eth_config
                0x000000008084cf9e        0x9 drivers/usb/gadget/built-in.o
 *fill*         0x000000008084cfa7        0x1 
 .data.fs_eth_function
                0x000000008084cfa8       0x2c drivers/usb/gadget/built-in.o
 .data.fs_rndis_function
                0x000000008084cfd4       0x2c drivers/usb/gadget/built-in.o
 .data.fs_sink_desc
                0x000000008084d000        0x9 drivers/usb/gadget/built-in.o
 .data.fs_source_desc
                0x000000008084d009        0x9 drivers/usb/gadget/built-in.o
 .data.fs_status_desc
                0x000000008084d012        0x9 drivers/usb/gadget/built-in.o
 *fill*         0x000000008084d01b        0x1 
 .data.hs_eth_function
                0x000000008084d01c       0x2c drivers/usb/gadget/built-in.o
 .data.hs_rndis_function
                0x000000008084d048       0x2c drivers/usb/gadget/built-in.o
 .data.hs_sink_desc
                0x000000008084d074        0x9 drivers/usb/gadget/built-in.o
 .data.hs_source_desc
                0x000000008084d07d        0x9 drivers/usb/gadget/built-in.o
 .data.hs_status_desc
                0x000000008084d086        0x9 drivers/usb/gadget/built-in.o
 *fill*         0x000000008084d08f        0x1 
 .data.l_priv   0x000000008084d090        0x4 drivers/usb/gadget/built-in.o
                0x000000008084d090                l_priv
 .data.otg_descriptor
                0x000000008084d094        0x3 drivers/usb/gadget/built-in.o
 .data.product_desc
                0x000000008084d097       0x28 drivers/usb/gadget/built-in.o
 .data.rndis_config
                0x000000008084d0bf        0x9 drivers/usb/gadget/built-in.o
 .data.strings  0x000000008084d0c8       0x40 drivers/usb/gadget/built-in.o
 .data.stringtab
                0x000000008084d108        0x8 drivers/usb/gadget/built-in.o
 .data.ep0_cfg  0x000000008084d110        0x6 drivers/usb/musb-new/built-in.o
 .data.fifo_mode
                0x000000008084d116        0x2 drivers/usb/musb-new/built-in.o
 .data.mode_0_cfg
                0x000000008084d118       0x1e drivers/usb/musb-new/built-in.o
 .data.mode_1_cfg
                0x000000008084d136       0x1e drivers/usb/musb-new/built-in.o
 .data.mode_2_cfg
                0x000000008084d154       0x24 drivers/usb/musb-new/built-in.o
 .data.mode_3_cfg
                0x000000008084d178       0x24 drivers/usb/musb-new/built-in.o
 .data.mode_4_cfg
                0x000000008084d19c       0xa2 drivers/usb/musb-new/built-in.o
 .data.mode_5_cfg
                0x000000008084d23e       0xa2 drivers/usb/musb-new/built-in.o
 .data.musb_dsps_ops
                0x000000008084d2e0       0x24 drivers/usb/musb-new/built-in.o
                0x000000008084d2e0                musb_dsps_ops
 .data.fstypes  0x000000008084d304       0x84 fs/built-in.o
 .data.ext4fs_indir1_blkno
                0x000000008084d388        0x4 fs/built-in.o
                0x000000008084d388                ext4fs_indir1_blkno
 .data.ext4fs_indir2_blkno
                0x000000008084d38c        0x4 fs/built-in.o
                0x000000008084d38c                ext4fs_indir2_blkno
 .data.ext4fs_indir3_blkno
                0x000000008084d390        0x4 fs/built-in.o
                0x000000008084d390                ext4fs_indir3_blkno
 .data.prev_bg_bitmap_index.8941
                0x000000008084d394        0x4 fs/built-in.o
 .data.prev_inode_bitmap_index.8965
                0x000000008084d398        0x4 fs/built-in.o
 .data.prev_bg_bmap_idx.8624
                0x000000008084d39c        0x4 fs/built-in.o
 .data.prev_bg_bmap_idx.8639
                0x000000008084d3a0        0x4 fs/built-in.o
 .data.prev_bg_bmap_idx.8661
                0x000000008084d3a4        0x4 fs/built-in.o
 .data.prev_bg_bmap_idx.8696
                0x000000008084d3a8        0x4 fs/built-in.o
 .data.first_node
                0x000000008084d3ac        0x4 fs/built-in.o
 .data.efi_event
                0x000000008084d3b0       0x28 lib/built-in.o
 .data.efi_is_direct_boot
                0x000000008084d3d8        0x1 lib/built-in.o
 *fill*         0x000000008084d3d9        0x3 
 .data.efi_obj_list
                0x000000008084d3dc        0x8 lib/built-in.o
                0x000000008084d3dc                efi_obj_list
 .data.loaded_image_info_obj.9064
                0x000000008084d3e4       0x2c lib/built-in.o
 .data.efi_runtime_mmio
                0x000000008084d410        0x8 lib/built-in.o
                0x000000008084d410                efi_runtime_mmio
 .data.lastoff.10055
                0x000000008084d418        0x4 lib/built-in.o
 .data.efi_con_mode
                0x000000008084d41c       0x18 lib/built-in.o
 .data.efi_cout_modes
                0x000000008084d434       0x24 lib/built-in.o
 .data.efi_mem  0x000000008084d458        0x8 lib/built-in.o
                0x000000008084d458                efi_mem
 .data.sha256_padding
                0x000000008084d460       0x40 lib/built-in.o
 .data.first_call.8683
                0x000000008084d4a0        0x4 net/built-in.o
 .data.net_native_vlan
                0x000000008084d4a4        0x2 net/built-in.o
                0x000000008084d4a4                net_native_vlan
 .data.net_our_vlan
                0x000000008084d4a6        0x2 net/built-in.o
                0x000000008084d4a6                net_our_vlan
 .data.nfs_offset
                0x000000008084d4a8        0x4 net/built-in.o
 .data.supported_nfs_versions
                0x000000008084d4ac        0x1 net/built-in.o
 *fill*         0x000000008084d4ad        0x1 
 .data.tftp_block_size
                0x000000008084d4ae        0x2 net/built-in.o
 .data.tftp_block_size_option
                0x000000008084d4b0        0x2 net/built-in.o
 *fill*         0x000000008084d4b2        0x2 
 .data.tftp_timeout_count_max
                0x000000008084d4b4        0x4 net/built-in.o
                0x000000008084d4b4                tftp_timeout_count_max
 .data.tftp_timeout_ms
                0x000000008084d4b8        0x4 net/built-in.o
                0x000000008084d4b8                tftp_timeout_ms
 .data.timeout_count_max
                0x000000008084d4bc        0x4 net/built-in.o
 .data.timeout_ms
                0x000000008084d4c0        0x4 net/built-in.o
 .data.test_commands
                0x000000008084d4c4       0x54 test/dm/built-in.o

.got            0x000000008084d518        0x0
 .got           0x000000008084d518        0x0 arch/arm/cpu/armv7/start.o

.got.plt        0x000000008084d518        0xc
 .got.plt       0x000000008084d518        0xc arch/arm/cpu/armv7/start.o
                0x000000008084d518                _GLOBAL_OFFSET_TABLE_

.igot.plt       0x000000008084d524        0x0
 .igot.plt      0x000000008084d524        0x0 arch/arm/cpu/armv7/start.o
                0x000000008084d524                . = ALIGN (0x4)
                0x000000008084d524                . = .
                0x000000008084d524                . = ALIGN (0x4)

.u_boot_list    0x000000008084d524      0xcd0
 *(SORT_BY_NAME(.u_boot_list*))
 .u_boot_list_2_blk_driver_1
                0x000000008084d524        0x0 drivers/built-in.o
 .u_boot_list_2_blk_driver_2_mmc
                0x000000008084d524       0x18 drivers/mmc/built-in.o
                0x000000008084d524                _u_boot_list_2_blk_driver_2_mmc
 .u_boot_list_2_blk_driver_2_usb
                0x000000008084d53c       0x18 common/built-in.o
                0x000000008084d53c                _u_boot_list_2_blk_driver_2_usb
 .u_boot_list_2_blk_driver_3
                0x000000008084d554        0x0 drivers/built-in.o
 .u_boot_list_2_cmd_1
                0x000000008084d554        0x0 cmd/built-in.o
 .u_boot_list_2_cmd_1
                0x000000008084d554        0x0 common/built-in.o
 .u_boot_list_2_cmd_2_askenv
                0x000000008084d554       0x1c cmd/built-in.o
                0x000000008084d554                _u_boot_list_2_cmd_2_askenv
 .u_boot_list_2_cmd_2_base
                0x000000008084d570       0x1c cmd/built-in.o
                0x000000008084d570                _u_boot_list_2_cmd_2_base
 .u_boot_list_2_cmd_2_bdinfo
                0x000000008084d58c       0x1c cmd/built-in.o
                0x000000008084d58c                _u_boot_list_2_cmd_2_bdinfo
 .u_boot_list_2_cmd_2_boot
                0x000000008084d5a8       0x1c cmd/built-in.o
                0x000000008084d5a8                _u_boot_list_2_cmd_2_boot
 .u_boot_list_2_cmd_2_bootd
                0x000000008084d5c4       0x1c cmd/built-in.o
                0x000000008084d5c4                _u_boot_list_2_cmd_2_bootd
 .u_boot_list_2_cmd_2_bootefi
                0x000000008084d5e0       0x1c cmd/built-in.o
                0x000000008084d5e0                _u_boot_list_2_cmd_2_bootefi
 .u_boot_list_2_cmd_2_bootelf
                0x000000008084d5fc       0x1c cmd/built-in.o
                0x000000008084d5fc                _u_boot_list_2_cmd_2_bootelf
 .u_boot_list_2_cmd_2_bootm
                0x000000008084d618       0x1c cmd/built-in.o
                0x000000008084d618                _u_boot_list_2_cmd_2_bootm
 .u_boot_list_2_cmd_2_bootp
                0x000000008084d634       0x1c cmd/built-in.o
                0x000000008084d634                _u_boot_list_2_cmd_2_bootp
 .u_boot_list_2_cmd_2_bootvx
                0x000000008084d650       0x1c cmd/built-in.o
                0x000000008084d650                _u_boot_list_2_cmd_2_bootvx
 .u_boot_list_2_cmd_2_bootz
                0x000000008084d66c       0x1c cmd/built-in.o
                0x000000008084d66c                _u_boot_list_2_cmd_2_bootz
 .u_boot_list_2_cmd_2_cmp
                0x000000008084d688       0x1c cmd/built-in.o
                0x000000008084d688                _u_boot_list_2_cmd_2_cmp
 .u_boot_list_2_cmd_2_coninfo
                0x000000008084d6a4       0x1c cmd/built-in.o
                0x000000008084d6a4                _u_boot_list_2_cmd_2_coninfo
 .u_boot_list_2_cmd_2_cp
                0x000000008084d6c0       0x1c cmd/built-in.o
                0x000000008084d6c0                _u_boot_list_2_cmd_2_cp
 .u_boot_list_2_cmd_2_crc32
                0x000000008084d6dc       0x1c cmd/built-in.o
                0x000000008084d6dc                _u_boot_list_2_cmd_2_crc32
 .u_boot_list_2_cmd_2_dfu
                0x000000008084d6f8       0x1c cmd/built-in.o
                0x000000008084d6f8                _u_boot_list_2_cmd_2_dfu
 .u_boot_list_2_cmd_2_dhcp
                0x000000008084d714       0x1c cmd/built-in.o
                0x000000008084d714                _u_boot_list_2_cmd_2_dhcp
 .u_boot_list_2_cmd_2_dm
                0x000000008084d730       0x1c test/dm/built-in.o
                0x000000008084d730                _u_boot_list_2_cmd_2_dm
 .u_boot_list_2_cmd_2_echo
                0x000000008084d74c       0x1c cmd/built-in.o
                0x000000008084d74c                _u_boot_list_2_cmd_2_echo
 .u_boot_list_2_cmd_2_editenv
                0x000000008084d768       0x1c cmd/built-in.o
                0x000000008084d768                _u_boot_list_2_cmd_2_editenv
 .u_boot_list_2_cmd_2_eeprom
                0x000000008084d784       0x1c cmd/built-in.o
                0x000000008084d784                _u_boot_list_2_cmd_2_eeprom
 .u_boot_list_2_cmd_2_env
                0x000000008084d7a0       0x1c cmd/built-in.o
                0x000000008084d7a0                _u_boot_list_2_cmd_2_env
 .u_boot_list_2_cmd_2_exit
                0x000000008084d7bc       0x1c cmd/built-in.o
                0x000000008084d7bc                _u_boot_list_2_cmd_2_exit
 .u_boot_list_2_cmd_2_ext2load
                0x000000008084d7d8       0x1c cmd/built-in.o
                0x000000008084d7d8                _u_boot_list_2_cmd_2_ext2load
 .u_boot_list_2_cmd_2_ext2ls
                0x000000008084d7f4       0x1c cmd/built-in.o
                0x000000008084d7f4                _u_boot_list_2_cmd_2_ext2ls
 .u_boot_list_2_cmd_2_ext4load
                0x000000008084d810       0x1c cmd/built-in.o
                0x000000008084d810                _u_boot_list_2_cmd_2_ext4load
 .u_boot_list_2_cmd_2_ext4ls
                0x000000008084d82c       0x1c cmd/built-in.o
                0x000000008084d82c                _u_boot_list_2_cmd_2_ext4ls
 .u_boot_list_2_cmd_2_ext4size
                0x000000008084d848       0x1c cmd/built-in.o
                0x000000008084d848                _u_boot_list_2_cmd_2_ext4size
 .u_boot_list_2_cmd_2_ext4write
                0x000000008084d864       0x1c cmd/built-in.o
                0x000000008084d864                _u_boot_list_2_cmd_2_ext4write
 .u_boot_list_2_cmd_2_false
                0x000000008084d880       0x1c cmd/built-in.o
                0x000000008084d880                _u_boot_list_2_cmd_2_false
 .u_boot_list_2_cmd_2_fastboot
                0x000000008084d89c       0x1c cmd/built-in.o
                0x000000008084d89c                _u_boot_list_2_cmd_2_fastboot
 .u_boot_list_2_cmd_2_fatinfo
                0x000000008084d8b8       0x1c cmd/built-in.o
                0x000000008084d8b8                _u_boot_list_2_cmd_2_fatinfo
 .u_boot_list_2_cmd_2_fatload
                0x000000008084d8d4       0x1c cmd/built-in.o
                0x000000008084d8d4                _u_boot_list_2_cmd_2_fatload
 .u_boot_list_2_cmd_2_fatls
                0x000000008084d8f0       0x1c cmd/built-in.o
                0x000000008084d8f0                _u_boot_list_2_cmd_2_fatls
 .u_boot_list_2_cmd_2_fatsize
                0x000000008084d90c       0x1c cmd/built-in.o
                0x000000008084d90c                _u_boot_list_2_cmd_2_fatsize
 .u_boot_list_2_cmd_2_fatwrite
                0x000000008084d928       0x1c cmd/built-in.o
                0x000000008084d928                _u_boot_list_2_cmd_2_fatwrite
 .u_boot_list_2_cmd_2_fdt
                0x000000008084d944       0x1c cmd/built-in.o
                0x000000008084d944                _u_boot_list_2_cmd_2_fdt
 .u_boot_list_2_cmd_2_fstype
                0x000000008084d960       0x1c cmd/built-in.o
                0x000000008084d960                _u_boot_list_2_cmd_2_fstype
 .u_boot_list_2_cmd_2_go
                0x000000008084d97c       0x1c cmd/built-in.o
                0x000000008084d97c                _u_boot_list_2_cmd_2_go
 .u_boot_list_2_cmd_2_gpio
                0x000000008084d998       0x1c cmd/built-in.o
                0x000000008084d998                _u_boot_list_2_cmd_2_gpio
 .u_boot_list_2_cmd_2_gpt
                0x000000008084d9b4       0x1c cmd/built-in.o
                0x000000008084d9b4                _u_boot_list_2_cmd_2_gpt
 .u_boot_list_2_cmd_2_help
                0x000000008084d9d0       0x1c cmd/built-in.o
                0x000000008084d9d0                _u_boot_list_2_cmd_2_help
 .u_boot_list_2_cmd_2_i2c
                0x000000008084d9ec       0x1c cmd/built-in.o
                0x000000008084d9ec                _u_boot_list_2_cmd_2_i2c
 .u_boot_list_2_cmd_2_iminfo
                0x000000008084da08       0x1c cmd/built-in.o
                0x000000008084da08                _u_boot_list_2_cmd_2_iminfo
 .u_boot_list_2_cmd_2_imxtract
                0x000000008084da24       0x1c cmd/built-in.o
                0x000000008084da24                _u_boot_list_2_cmd_2_imxtract
 .u_boot_list_2_cmd_2_itest
                0x000000008084da40       0x1c cmd/built-in.o
                0x000000008084da40                _u_boot_list_2_cmd_2_itest
 .u_boot_list_2_cmd_2_load
                0x000000008084da5c       0x1c cmd/built-in.o
                0x000000008084da5c                _u_boot_list_2_cmd_2_load
 .u_boot_list_2_cmd_2_loadb
                0x000000008084da78       0x1c cmd/built-in.o
                0x000000008084da78                _u_boot_list_2_cmd_2_loadb
 .u_boot_list_2_cmd_2_loads
                0x000000008084da94       0x1c cmd/built-in.o
                0x000000008084da94                _u_boot_list_2_cmd_2_loads
 .u_boot_list_2_cmd_2_loadx
                0x000000008084dab0       0x1c cmd/built-in.o
                0x000000008084dab0                _u_boot_list_2_cmd_2_loadx
 .u_boot_list_2_cmd_2_loady
                0x000000008084dacc       0x1c cmd/built-in.o
                0x000000008084dacc                _u_boot_list_2_cmd_2_loady
 .u_boot_list_2_cmd_2_loop
                0x000000008084dae8       0x1c cmd/built-in.o
                0x000000008084dae8                _u_boot_list_2_cmd_2_loop
 .u_boot_list_2_cmd_2_ls
                0x000000008084db04       0x1c cmd/built-in.o
                0x000000008084db04                _u_boot_list_2_cmd_2_ls
 .u_boot_list_2_cmd_2_md
                0x000000008084db20       0x1c cmd/built-in.o
                0x000000008084db20                _u_boot_list_2_cmd_2_md
 .u_boot_list_2_cmd_2_mdio
                0x000000008084db3c       0x1c cmd/built-in.o
                0x000000008084db3c                _u_boot_list_2_cmd_2_mdio
 .u_boot_list_2_cmd_2_mii
                0x000000008084db58       0x1c cmd/built-in.o
                0x000000008084db58                _u_boot_list_2_cmd_2_mii
 .u_boot_list_2_cmd_2_mm
                0x000000008084db74       0x1c cmd/built-in.o
                0x000000008084db74                _u_boot_list_2_cmd_2_mm
 .u_boot_list_2_cmd_2_mmc
                0x000000008084db90       0x1c cmd/built-in.o
                0x000000008084db90                _u_boot_list_2_cmd_2_mmc
 .u_boot_list_2_cmd_2_mmcinfo
                0x000000008084dbac       0x1c cmd/built-in.o
                0x000000008084dbac                _u_boot_list_2_cmd_2_mmcinfo
 .u_boot_list_2_cmd_2_mw
                0x000000008084dbc8       0x1c cmd/built-in.o
                0x000000008084dbc8                _u_boot_list_2_cmd_2_mw
 .u_boot_list_2_cmd_2_nfs
                0x000000008084dbe4       0x1c cmd/built-in.o
                0x000000008084dbe4                _u_boot_list_2_cmd_2_nfs
 .u_boot_list_2_cmd_2_nm
                0x000000008084dc00       0x1c cmd/built-in.o
                0x000000008084dc00                _u_boot_list_2_cmd_2_nm
 .u_boot_list_2_cmd_2_part
                0x000000008084dc1c       0x1c cmd/built-in.o
                0x000000008084dc1c                _u_boot_list_2_cmd_2_part
 .u_boot_list_2_cmd_2_ping
                0x000000008084dc38       0x1c cmd/built-in.o
                0x000000008084dc38                _u_boot_list_2_cmd_2_ping
 .u_boot_list_2_cmd_2_printenv
                0x000000008084dc54       0x1c cmd/built-in.o
                0x000000008084dc54                _u_boot_list_2_cmd_2_printenv
 .u_boot_list_2_cmd_2_pxe
                0x000000008084dc70       0x1c cmd/built-in.o
                0x000000008084dc70                _u_boot_list_2_cmd_2_pxe
 .u_boot_list_2_cmd_2_question_mark
                0x000000008084dc8c       0x1c cmd/built-in.o
                0x000000008084dc8c                _u_boot_list_2_cmd_2_question_mark
 .u_boot_list_2_cmd_2_reset
                0x000000008084dca8       0x1c cmd/built-in.o
                0x000000008084dca8                _u_boot_list_2_cmd_2_reset
 .u_boot_list_2_cmd_2_run
                0x000000008084dcc4       0x1c cmd/built-in.o
                0x000000008084dcc4                _u_boot_list_2_cmd_2_run
 .u_boot_list_2_cmd_2_save
                0x000000008084dce0       0x1c cmd/built-in.o
                0x000000008084dce0                _u_boot_list_2_cmd_2_save
 .u_boot_list_2_cmd_2_saveenv
                0x000000008084dcfc       0x1c cmd/built-in.o
                0x000000008084dcfc                _u_boot_list_2_cmd_2_saveenv
 .u_boot_list_2_cmd_2_setenv
                0x000000008084dd18       0x1c cmd/built-in.o
                0x000000008084dd18                _u_boot_list_2_cmd_2_setenv
 .u_boot_list_2_cmd_2_sf
                0x000000008084dd34       0x1c cmd/built-in.o
                0x000000008084dd34                _u_boot_list_2_cmd_2_sf
 .u_boot_list_2_cmd_2_showvar
                0x000000008084dd50       0x1c common/built-in.o
                0x000000008084dd50                _u_boot_list_2_cmd_2_showvar
 .u_boot_list_2_cmd_2_size
                0x000000008084dd6c       0x1c cmd/built-in.o
                0x000000008084dd6c                _u_boot_list_2_cmd_2_size
 .u_boot_list_2_cmd_2_sleep
                0x000000008084dd88       0x1c cmd/built-in.o
                0x000000008084dd88                _u_boot_list_2_cmd_2_sleep
 .u_boot_list_2_cmd_2_source
                0x000000008084dda4       0x1c cmd/built-in.o
                0x000000008084dda4                _u_boot_list_2_cmd_2_source
 .u_boot_list_2_cmd_2_spl
                0x000000008084ddc0       0x1c cmd/built-in.o
                0x000000008084ddc0                _u_boot_list_2_cmd_2_spl
 .u_boot_list_2_cmd_2_sspi
                0x000000008084dddc       0x1c cmd/built-in.o
                0x000000008084dddc                _u_boot_list_2_cmd_2_sspi
 .u_boot_list_2_cmd_2_sysboot
                0x000000008084ddf8       0x1c cmd/built-in.o
                0x000000008084ddf8                _u_boot_list_2_cmd_2_sysboot
 .u_boot_list_2_cmd_2_test
                0x000000008084de14       0x1c cmd/built-in.o
                0x000000008084de14                _u_boot_list_2_cmd_2_test
 .u_boot_list_2_cmd_2_tftpboot
                0x000000008084de30       0x1c cmd/built-in.o
                0x000000008084de30                _u_boot_list_2_cmd_2_tftpboot
 .u_boot_list_2_cmd_2_true
                0x000000008084de4c       0x1c cmd/built-in.o
                0x000000008084de4c                _u_boot_list_2_cmd_2_true
 .u_boot_list_2_cmd_2_usb
                0x000000008084de68       0x1c cmd/built-in.o
                0x000000008084de68                _u_boot_list_2_cmd_2_usb
 .u_boot_list_2_cmd_2_usbboot
                0x000000008084de84       0x1c cmd/built-in.o
                0x000000008084de84                _u_boot_list_2_cmd_2_usbboot
 .u_boot_list_2_cmd_2_version
                0x000000008084dea0       0x1c cmd/built-in.o
                0x000000008084dea0                _u_boot_list_2_cmd_2_version
 .u_boot_list_2_cmd_3
                0x000000008084debc        0x0 cmd/built-in.o
 .u_boot_list_2_cmd_3
                0x000000008084debc        0x0 common/built-in.o
 .u_boot_list_2_driver_1
                0x000000008084debc        0x0 drivers/built-in.o
 .u_boot_list_2_driver_2_gpio_omap
                0x000000008084debc       0x44 drivers/gpio/built-in.o
                0x000000008084debc                _u_boot_list_2_driver_2_gpio_omap
 .u_boot_list_2_driver_2_ns16550_serial
                0x000000008084df00       0x44 drivers/serial/built-in.o
                0x000000008084df00                _u_boot_list_2_driver_2_ns16550_serial
 .u_boot_list_2_driver_2_root_driver
                0x000000008084df44       0x44 drivers/built-in.o
                0x000000008084df44                _u_boot_list_2_driver_2_root_driver
 .u_boot_list_2_driver_3
                0x000000008084df88        0x0 drivers/built-in.o
 .u_boot_list_2_driver_info_1
                0x000000008084df88        0x0 drivers/built-in.o
 .u_boot_list_2_driver_info_2_am33xx_gpios
                0x000000008084df88       0x20 arch/arm/mach-omap2/built-in.o
                0x000000008084df88                _u_boot_list_2_driver_info_2_am33xx_gpios
 .u_boot_list_2_driver_info_2_am33xx_uarts
                0x000000008084dfa8       0x30 arch/arm/mach-omap2/built-in.o
                0x000000008084dfa8                _u_boot_list_2_driver_info_2_am33xx_uarts
 .u_boot_list_2_driver_info_3
                0x000000008084dfd8        0x0 drivers/built-in.o
 .u_boot_list_2_env_clbk_1
                0x000000008084dfd8        0x0 common/built-in.o
 .u_boot_list_2_env_clbk_2_baudrate
                0x000000008084dfd8        0x8 drivers/serial/built-in.o
                0x000000008084dfd8                _u_boot_list_2_env_clbk_2_baudrate
 .u_boot_list_2_env_clbk_2_bootfile
                0x000000008084dfe0        0x8 net/built-in.o
                0x000000008084dfe0                _u_boot_list_2_env_clbk_2_bootfile
 .u_boot_list_2_env_clbk_2_callbacks
                0x000000008084dfe8        0x8 common/built-in.o
                0x000000008084dfe8                _u_boot_list_2_env_clbk_2_callbacks
 .u_boot_list_2_env_clbk_2_console
                0x000000008084dff0        0x8 common/built-in.o
                0x000000008084dff0                _u_boot_list_2_env_clbk_2_console
 .u_boot_list_2_env_clbk_2_ethaddr
                0x000000008084dff8        0x8 net/built-in.o
                0x000000008084dff8                _u_boot_list_2_env_clbk_2_ethaddr
 .u_boot_list_2_env_clbk_2_flags
                0x000000008084e000        0x8 common/built-in.o
                0x000000008084e000                _u_boot_list_2_env_clbk_2_flags
 .u_boot_list_2_env_clbk_2_gatewayip
                0x000000008084e008        0x8 net/built-in.o
                0x000000008084e008                _u_boot_list_2_env_clbk_2_gatewayip
 .u_boot_list_2_env_clbk_2_ipaddr
                0x000000008084e010        0x8 net/built-in.o
                0x000000008084e010                _u_boot_list_2_env_clbk_2_ipaddr
 .u_boot_list_2_env_clbk_2_loadaddr
                0x000000008084e018        0x8 common/built-in.o
                0x000000008084e018                _u_boot_list_2_env_clbk_2_loadaddr
 .u_boot_list_2_env_clbk_2_netmask
                0x000000008084e020        0x8 net/built-in.o
                0x000000008084e020                _u_boot_list_2_env_clbk_2_netmask
 .u_boot_list_2_env_clbk_2_nvlan
                0x000000008084e028        0x8 net/built-in.o
                0x000000008084e028                _u_boot_list_2_env_clbk_2_nvlan
 .u_boot_list_2_env_clbk_2_serverip
                0x000000008084e030        0x8 net/built-in.o
                0x000000008084e030                _u_boot_list_2_env_clbk_2_serverip
 .u_boot_list_2_env_clbk_2_vlan
                0x000000008084e038        0x8 net/built-in.o
                0x000000008084e038                _u_boot_list_2_env_clbk_2_vlan
 .u_boot_list_2_env_clbk_3
                0x000000008084e040        0x0 common/built-in.o
 .u_boot_list_2_fit_loadable_1
                0x000000008084e040        0x0 common/built-in.o
 .u_boot_list_2_fit_loadable_3
                0x000000008084e040        0x0 common/built-in.o
 .u_boot_list_2_g_dnl_bind_callbacks_1
                0x000000008084e040        0x0 drivers/usb/gadget/built-in.o
 .u_boot_list_2_g_dnl_bind_callbacks_2___usb_function_name_usb_dnl_dfu
                0x000000008084e040        0x8 drivers/usb/gadget/built-in.o
                0x000000008084e040                _u_boot_list_2_g_dnl_bind_callbacks_2___usb_function_name_usb_dnl_dfu
 .u_boot_list_2_g_dnl_bind_callbacks_2___usb_function_name_usb_dnl_fastboot
                0x000000008084e048        0x8 drivers/usb/gadget/built-in.o
                0x000000008084e048                _u_boot_list_2_g_dnl_bind_callbacks_2___usb_function_name_usb_dnl_fastboot
 .u_boot_list_2_i2c_1
                0x000000008084e050        0x0 cmd/built-in.o
 .u_boot_list_2_i2c_1
                0x000000008084e050        0x0 drivers/i2c/built-in.o
 .u_boot_list_2_i2c_2_omap24_0
                0x000000008084e050       0x2c drivers/i2c/built-in.o
                0x000000008084e050                _u_boot_list_2_i2c_2_omap24_0
 .u_boot_list_2_i2c_2_omap24_1
                0x000000008084e07c       0x2c drivers/i2c/built-in.o
                0x000000008084e07c                _u_boot_list_2_i2c_2_omap24_1
 .u_boot_list_2_i2c_2_omap24_2
                0x000000008084e0a8       0x2c drivers/i2c/built-in.o
                0x000000008084e0a8                _u_boot_list_2_i2c_2_omap24_2
 .u_boot_list_2_i2c_3
                0x000000008084e0d4        0x0 cmd/built-in.o
 .u_boot_list_2_i2c_3
                0x000000008084e0d4        0x0 drivers/i2c/built-in.o
 .u_boot_list_2_part_driver_1
                0x000000008084e0d4        0x0 disk/built-in.o
 .u_boot_list_2_part_driver_2_a_efi
                0x000000008084e0d4       0x18 disk/built-in.o
                0x000000008084e0d4                _u_boot_list_2_part_driver_2_a_efi
 .u_boot_list_2_part_driver_2_dos
                0x000000008084e0ec       0x18 disk/built-in.o
                0x000000008084e0ec                _u_boot_list_2_part_driver_2_dos
 .u_boot_list_2_part_driver_2_iso
                0x000000008084e104       0x18 disk/built-in.o
                0x000000008084e104                _u_boot_list_2_part_driver_2_iso
 .u_boot_list_2_part_driver_3
                0x000000008084e11c        0x0 disk/built-in.o
 .u_boot_list_2_uclass_1
                0x000000008084e11c        0x0 drivers/built-in.o
 .u_boot_list_2_uclass_2_gpio
                0x000000008084e11c       0x48 drivers/gpio/built-in.o
                0x000000008084e11c                _u_boot_list_2_uclass_2_gpio
 .u_boot_list_2_uclass_2_root
                0x000000008084e164       0x48 drivers/built-in.o
                0x000000008084e164                _u_boot_list_2_uclass_2_root
 .u_boot_list_2_uclass_2_serial
                0x000000008084e1ac       0x48 drivers/serial/built-in.o
                0x000000008084e1ac                _u_boot_list_2_uclass_2_serial
 .u_boot_list_2_uclass_3
                0x000000008084e1f4        0x0 drivers/built-in.o
                0x000000008084e1f4                . = ALIGN (0x4)

.__efi_runtime_start
                0x000000008084e1f4        0x0
 *(.__efi_runtime_start)
 .__efi_runtime_start
                0x000000008084e1f4        0x0 arch/arm/lib/built-in.o

.efi_runtime    0x000000008084e1f8      0x100
 *(efi_runtime_text)
 efi_runtime_text
                0x000000008084e1f8       0x24 lib/built-in.o
                0x000000008084e1f8                efi_reset_system
                0x000000008084e1fa                efi_get_time
 *(efi_runtime_data)
 *fill*         0x000000008084e21c        0x4 
 efi_runtime_data
                0x000000008084e220       0xd8 lib/built-in.o
                0x000000008084e220                systab
                0x000000008084e2a8                efi_runtime_services

.__efi_runtime_stop
                0x000000008084e2f8        0x0
 *(.__efi_runtime_stop)
 .__efi_runtime_stop
                0x000000008084e2f8        0x0 arch/arm/lib/built-in.o

.efi_runtime_rel_start
                0x000000008084e2f8        0x0
 *(.__efi_runtime_rel_start)
 .__efi_runtime_rel_start
                0x000000008084e2f8        0x0 arch/arm/lib/built-in.o

.efi_runtime_rel
                0x000000008084e2f8       0x90
 *(.relefi_runtime_text)
 *(.relefi_runtime_data)
 .relefi_runtime_data
                0x000000008084e2f8       0x90 arch/arm/cpu/armv7/start.o

.efi_runtime_rel_stop
                0x000000008084e388        0x0
 *(.__efi_runtime_rel_stop)
 .__efi_runtime_rel_stop
                0x000000008084e388        0x0 arch/arm/lib/built-in.o
                0x000000008084e388                . = ALIGN (0x4)

.image_copy_end
                0x000000008084e388        0x0
 *(.__image_copy_end)
 .__image_copy_end
                0x000000008084e388        0x0 arch/arm/lib/built-in.o

.rel_dyn_start  0x000000008084e388        0x0
 *(.__rel_dyn_start)
 .__rel_dyn_start
                0x000000008084e388        0x0 arch/arm/lib/built-in.o

.rel.dyn        0x000000008084e388     0xae40
 *(.rel*)
 .rel.got       0x000000008084e388        0x0 arch/arm/cpu/armv7/start.o
 .rel.plt       0x000000008084e388        0x0 arch/arm/cpu/armv7/start.o
 .rel.bss       0x000000008084e388        0x0 arch/arm/cpu/armv7/start.o
 .rel.data.rel.ro
                0x000000008084e388        0x0 arch/arm/cpu/armv7/start.o
 .rel.iplt      0x000000008084e388        0x0 arch/arm/cpu/armv7/start.o
 .rel.text      0x000000008084e388       0x20 arch/arm/cpu/armv7/start.o
 .rel.text.request_and_set_gpio
                0x000000008084e3a8       0x18 arch/arm/cpu/armv7/start.o
 .rel.text.board_init
                0x000000008084e3c0       0x60 arch/arm/cpu/armv7/start.o
 .rel.text.board_late_init
                0x000000008084e420       0x38 arch/arm/cpu/armv7/start.o
 .rel.text.board_eth_init
                0x000000008084e458       0x60 arch/arm/cpu/armv7/start.o
 .rel.data.cpsw_data
                0x000000008084e4b8       0x10 arch/arm/cpu/armv7/start.o
 .rel.vectors   0x000000008084e4c8       0x38 arch/arm/cpu/armv7/start.o
 .rel.text.relocate_vectors
                0x000000008084e500       0x20 arch/arm/cpu/armv7/start.o
 .rel.text.boot_jump_linux
                0x000000008084e520       0x28 arch/arm/cpu/armv7/start.o
 .rel.text.boot_prep_linux
                0x000000008084e548       0x18 arch/arm/cpu/armv7/start.o
 .rel.text.boot_prep_vxworks
                0x000000008084e560       0x10 arch/arm/cpu/armv7/start.o
 .rel.text.interrupt_init
                0x000000008084e570        0x8 arch/arm/cpu/armv7/start.o
 .rel.text.bad_mode
                0x000000008084e578        0x8 arch/arm/cpu/armv7/start.o
 .rel.text.show_regs
                0x000000008084e580       0x60 arch/arm/cpu/armv7/start.o
 .rel.text.do_undefined_instruction
                0x000000008084e5e0        0x8 arch/arm/cpu/armv7/start.o
 .rel.text.do_software_interrupt
                0x000000008084e5e8        0x8 arch/arm/cpu/armv7/start.o
 .rel.text.do_prefetch_abort
                0x000000008084e5f0        0x8 arch/arm/cpu/armv7/start.o
 .rel.text.do_data_abort
                0x000000008084e5f8        0x8 arch/arm/cpu/armv7/start.o
 .rel.text.do_not_used
                0x000000008084e600        0x8 arch/arm/cpu/armv7/start.o
 .rel.text.do_fiq
                0x000000008084e608        0x8 arch/arm/cpu/armv7/start.o
 .rel.text.do_irq
                0x000000008084e610        0x8 arch/arm/cpu/armv7/start.o
 .rel.text.do_reset
                0x000000008084e618        0x8 arch/arm/cpu/armv7/start.o
 .rel.text.check_cache_range
                0x000000008084e620        0x8 arch/arm/cpu/armv7/start.o
 .rel.rodata    0x000000008084e628      0x158 arch/arm/cpu/armv7/start.o
 .rel.text.get_device_type
                0x000000008084e780        0x8 arch/arm/cpu/armv7/start.o
 .rel.text.print_cpuinfo
                0x000000008084e788       0x40 arch/arm/cpu/armv7/start.o
 .rel.text.arch_misc_init
                0x000000008084e7c8       0x20 arch/arm/cpu/armv7/start.o
 .rel.text.clk_synthesizer_reg_write
                0x000000008084e7e8        0x8 arch/arm/cpu/armv7/start.o
 .rel.text.setup_clock_synthesizer
                0x000000008084e7f0       0x10 arch/arm/cpu/armv7/start.o
 .rel.text.fb_set_reboot_flag
                0x000000008084e800       0x18 arch/arm/cpu/armv7/start.o
 .rel.rodata.cpu_revs
                0x000000008084e818       0x18 arch/arm/cpu/armv7/start.o
 .rel.rodata.dev_types
                0x000000008084e830       0x20 arch/arm/cpu/armv7/start.o
 .rel.data.otg0_board_data
                0x000000008084e850        0x8 arch/arm/cpu/armv7/start.o
 .rel.data.otg0_plat
                0x000000008084e858       0x18 arch/arm/cpu/armv7/start.o
 .rel.data.otg1_board_data
                0x000000008084e870        0x8 arch/arm/cpu/armv7/start.o
 .rel.data.otg1_plat
                0x000000008084e878       0x18 arch/arm/cpu/armv7/start.o
 .rel.u_boot_list_2_driver_info_2_am33xx_gpios
                0x000000008084e890       0x40 arch/arm/cpu/armv7/start.o
 .rel.u_boot_list_2_driver_info_2_am33xx_uarts
                0x000000008084e8d0       0x60 arch/arm/cpu/armv7/start.o
 .rel.text.set_board_info_env
                0x000000008084e930       0x18 arch/arm/cpu/armv7/start.o
 .rel.text.do_go
                0x000000008084e948       0x10 arch/arm/cpu/armv7/start.o
 .rel.text.do_bootm
                0x000000008084e958       0x18 arch/arm/cpu/armv7/start.o
 .rel.text.do_bootd
                0x000000008084e970        0x8 arch/arm/cpu/armv7/start.o
 .rel.text.image_info
                0x000000008084e978       0x60 arch/arm/cpu/armv7/start.o
 .rel.text.do_iminfo
                0x000000008084e9d8        0x8 arch/arm/cpu/armv7/start.o
 .rel.text.bootm_maybe_autostart
                0x000000008084e9e0       0x20 arch/arm/cpu/armv7/start.o
 .rel.text.do_help
                0x000000008084ea00       0x10 arch/arm/cpu/armv7/start.o
 .rel.text.do_version
                0x000000008084ea10       0x20 arch/arm/cpu/armv7/start.o
 .rel.text.source
                0x000000008084ea30       0x68 arch/arm/cpu/armv7/start.o
 .rel.text.do_source
                0x000000008084ea98       0x10 arch/arm/cpu/armv7/start.o
 .rel.text.print_num
                0x000000008084eaa8        0x8 arch/arm/cpu/armv7/start.o
 .rel.text.do_bdinfo
                0x000000008084eab0       0xa0 arch/arm/cpu/armv7/start.o
 .rel.text.bootefi_open_dp
                0x000000008084eb50        0x8 arch/arm/cpu/armv7/start.o
 .rel.text.do_bootefi_exec
                0x000000008084eb58       0x60 arch/arm/cpu/armv7/start.o
 .rel.text.do_bootefi
                0x000000008084ebb8       0x10 arch/arm/cpu/armv7/start.o
 .rel.text.efi_set_bootdev
                0x000000008084ebc8       0x38 arch/arm/cpu/armv7/start.o
 .rel.text.do_bootz
                0x000000008084ec00       0x18 arch/arm/cpu/armv7/start.o
 .rel.text.do_coninfo
                0x000000008084ec18       0x28 arch/arm/cpu/armv7/start.o
 .rel.text.do_echo
                0x000000008084ec40        0x8 arch/arm/cpu/armv7/start.o
 .rel.text.do_eeprom
                0x000000008084ec48       0x20 arch/arm/cpu/armv7/start.o
 .rel.text.valid_elf_image
                0x000000008084ec68       0x10 arch/arm/cpu/armv7/start.o
 .rel.text.do_bootelf
                0x000000008084ec78       0x28 arch/arm/cpu/armv7/start.o
 .rel.text.do_bootvx
                0x000000008084eca0       0xe0 arch/arm/cpu/armv7/start.o
 .rel.text.do_fat_fsinfo
                0x000000008084ed80       0x10 arch/arm/cpu/armv7/start.o
 .rel.text.do_fat_fswrite
                0x000000008084ed90       0x18 arch/arm/cpu/armv7/start.o
 .rel.text.fdt_valid
                0x000000008084eda8       0x28 arch/arm/cpu/armv7/start.o
 .rel.text.is_printable_string
                0x000000008084edd0        0x8 arch/arm/cpu/armv7/start.o
 .rel.text.print_data
                0x000000008084edd8       0x58 arch/arm/cpu/armv7/start.o
 .rel.text.set_working_fdt_addr
                0x000000008084ee30       0x10 arch/arm/cpu/armv7/start.o
 .rel.text.do_fdt
                0x000000008084ee40      0x248 arch/arm/cpu/armv7/start.o
 .rel.text.do_load_wrapper
                0x000000008084f088        0x8 arch/arm/cpu/armv7/start.o
 .rel.text.gpio_get_description
                0x000000008084f090       0x18 arch/arm/cpu/armv7/start.o
 .rel.text.do_gpio
                0x000000008084f0a8       0x50 arch/arm/cpu/armv7/start.o
 .rel.text.do_i2c
                0x000000008084f0f8        0x8 arch/arm/cpu/armv7/start.o
 .rel.text.do_i2c_bus_speed
                0x000000008084f100       0x18 arch/arm/cpu/armv7/start.o
 .rel.text.do_i2c_probe
                0x000000008084f118       0x10 arch/arm/cpu/armv7/start.o
 .rel.text.do_i2c_bus_num
                0x000000008084f128       0x30 arch/arm/cpu/armv7/start.o
 .rel.text.do_i2c_show_bus
                0x000000008084f158       0x28 arch/arm/cpu/armv7/start.o
 .rel.text.do_i2c_crc
                0x000000008084f180       0x20 arch/arm/cpu/armv7/start.o
 .rel.text.mod_i2c_mem.isra.5.part.6
                0x000000008084f1a0       0x60 arch/arm/cpu/armv7/start.o
 .rel.text.do_i2c_md
                0x000000008084f200       0x58 arch/arm/cpu/armv7/start.o
 .rel.text.do_i2c_read
                0x000000008084f258       0x10 arch/arm/cpu/armv7/start.o
 .rel.text.do_i2c_mw
                0x000000008084f268       0x10 arch/arm/cpu/armv7/start.o
 .rel.text.do_i2c_write
                0x000000008084f278       0x18 arch/arm/cpu/armv7/start.o
 .rel.text.do_i2c_loop
                0x000000008084f290       0x10 arch/arm/cpu/armv7/start.o
 .rel.text.binary_test
                0x000000008084f2a0       0x18 arch/arm/cpu/armv7/start.o
 .rel.text.do_itest
                0x000000008084f2b8        0x8 arch/arm/cpu/armv7/start.o
 .rel.text.bin_data_init
                0x000000008084f2c0       0x18 arch/arm/cpu/armv7/start.o
 .rel.text.k_data_save
                0x000000008084f2d8       0x30 arch/arm/cpu/armv7/start.o
 .rel.text.k_data_restore
                0x000000008084f308       0x30 arch/arm/cpu/armv7/start.o
 .rel.text.load_serial_ymodem
                0x000000008084f338       0x20 arch/arm/cpu/armv7/start.o
 .rel.text.bin_data_char
                0x000000008084f358       0x10 arch/arm/cpu/armv7/start.o
 .rel.text.chk1.constprop.1
                0x000000008084f368        0x8 arch/arm/cpu/armv7/start.o
 .rel.text.s1_sendpacket.constprop.2
                0x000000008084f370       0x18 arch/arm/cpu/armv7/start.o
 .rel.text.load_serial
                0x000000008084f388       0x20 arch/arm/cpu/armv7/start.o
 .rel.text.do_load_serial
                0x000000008084f3a8       0x30 arch/arm/cpu/armv7/start.o
 .rel.text.do_load_serial_bin
                0x000000008084f3d8      0x110 arch/arm/cpu/armv7/start.o
 .rel.text.do_mem_md
                0x000000008084f4e8       0x20 arch/arm/cpu/armv7/start.o
 .rel.text.do_mem_base
                0x000000008084f508       0x10 arch/arm/cpu/armv7/start.o
 .rel.text.do_mem_crc
                0x000000008084f518        0x8 arch/arm/cpu/armv7/start.o
 .rel.text.do_mem_mw
                0x000000008084f520        0x8 arch/arm/cpu/armv7/start.o
 .rel.text.mod_mem.isra.2.part.3
                0x000000008084f528       0x48 arch/arm/cpu/armv7/start.o
 .rel.text.do_mem_cp
                0x000000008084f570       0x10 arch/arm/cpu/armv7/start.o
 .rel.text.do_mem_cmp
                0x000000008084f580       0x38 arch/arm/cpu/armv7/start.o
 .rel.text.do_mii
                0x000000008084f5b8      0x170 arch/arm/cpu/armv7/start.o
 .rel.text.do_mdio
                0x000000008084f728       0x70 arch/arm/cpu/armv7/start.o
 .rel.text.do_mmcops
                0x000000008084f798       0x18 arch/arm/cpu/armv7/start.o
 .rel.text.init_mmc_device
                0x000000008084f7b0        0x8 arch/arm/cpu/armv7/start.o
 .rel.text.do_mmc_rescan
                0x000000008084f7b8        0x8 arch/arm/cpu/armv7/start.o
 .rel.text.do_mmc_hwpartition
                0x000000008084f7c0       0xb0 arch/arm/cpu/armv7/start.o
 .rel.text.do_mmc_dev
                0x000000008084f870       0x38 arch/arm/cpu/armv7/start.o
 .rel.text.do_mmcinfo
                0x000000008084f8a8       0xf8 arch/arm/cpu/armv7/start.o
 .rel.text.do_mmc_setdsr
                0x000000008084f9a0       0x28 arch/arm/cpu/armv7/start.o
 .rel.text.do_mmc_part
                0x000000008084f9c8       0x10 arch/arm/cpu/armv7/start.o
 .rel.text.do_mmc_erase
                0x000000008084f9d8       0x30 arch/arm/cpu/armv7/start.o
 .rel.text.do_mmc_write
                0x000000008084fa08       0x30 arch/arm/cpu/armv7/start.o
 .rel.text.do_mmc_read
                0x000000008084fa38       0x28 arch/arm/cpu/armv7/start.o
 .rel.text.netboot_common
                0x000000008084fa60       0xa8 arch/arm/cpu/armv7/start.o
 .rel.text.do_ping
                0x000000008084fb08       0x18 arch/arm/cpu/armv7/start.o
 .rel.text.do_part_list
                0x000000008084fb20       0x28 arch/arm/cpu/armv7/start.o
 .rel.text.do_part_start
                0x000000008084fb48       0x10 arch/arm/cpu/armv7/start.o
 .rel.text.do_part_size
                0x000000008084fb58       0x10 arch/arm/cpu/armv7/start.o
 .rel.text.do_part
                0x000000008084fb68       0x28 arch/arm/cpu/armv7/start.o
 .rel.text.do_pxe
                0x000000008084fb90       0x10 arch/arm/cpu/armv7/start.o
 .rel.text.label_print
                0x000000008084fba0        0x8 arch/arm/cpu/armv7/start.o
 .rel.text.do_get_tftp
                0x000000008084fba8        0x8 arch/arm/cpu/armv7/start.o
 .rel.text.from_env
                0x000000008084fbb0        0x8 arch/arm/cpu/armv7/start.o
 .rel.text.get_string
                0x000000008084fbb8        0x8 arch/arm/cpu/armv7/start.o
 .rel.text.get_token
                0x000000008084fbc0        0x8 arch/arm/cpu/armv7/start.o
 .rel.text.parse_sliteral
                0x000000008084fbc8        0x8 arch/arm/cpu/armv7/start.o
 .rel.text.parse_integer
                0x000000008084fbd0        0x8 arch/arm/cpu/armv7/start.o
 .rel.text.do_get_any
                0x000000008084fbd8       0x10 arch/arm/cpu/armv7/start.o
 .rel.text.do_get_fat
                0x000000008084fbe8       0x10 arch/arm/cpu/armv7/start.o
 .rel.text.do_get_ext2
                0x000000008084fbf8       0x10 arch/arm/cpu/armv7/start.o
 .rel.text.format_mac_pxe.constprop.7
                0x000000008084fc08       0x10 arch/arm/cpu/armv7/start.o
 .rel.text.get_relfile
                0x000000008084fc18       0x38 arch/arm/cpu/armv7/start.o
 .rel.text.get_pxe_file
                0x000000008084fc50        0x8 arch/arm/cpu/armv7/start.o
 .rel.text.handle_include
                0x000000008084fc58       0x10 arch/arm/cpu/armv7/start.o
 .rel.text.parse_pxefile_top
                0x000000008084fc68      0x150 arch/arm/cpu/armv7/start.o
 .rel.text.get_pxelinux_path
                0x000000008084fdb8       0x18 arch/arm/cpu/armv7/start.o
 .rel.text.do_pxe_get
                0x000000008084fdd0       0x48 arch/arm/cpu/armv7/start.o
 .rel.text.label_boot
                0x000000008084fe18      0x108 arch/arm/cpu/armv7/start.o
 .rel.text.handle_pxe_menu
                0x000000008084ff20       0x18 arch/arm/cpu/armv7/start.o
 .rel.text.do_pxe_boot
                0x000000008084ff38       0x38 arch/arm/cpu/armv7/start.o
 .rel.text.do_sysboot
                0x000000008084ff70       0x80 arch/arm/cpu/armv7/start.o
 .rel.text.do_spi_flash
                0x000000008084fff0      0x100 arch/arm/cpu/armv7/start.o
 .rel.text.do_spi
                0x00000000808500f0       0x60 arch/arm/cpu/armv7/start.o
 .rel.text.do_test
                0x0000000080850150        0x8 arch/arm/cpu/armv7/start.o
 .rel.text.usb_get_class_desc
                0x0000000080850158       0x50 arch/arm/cpu/armv7/start.o
 .rel.text.usb_show_tree_graph
                0x00000000808501a8       0x48 arch/arm/cpu/armv7/start.o
 .rel.text.usb_display_class_sub
                0x00000000808501f0       0x98 arch/arm/cpu/armv7/start.o
 .rel.text.usb_display_string
                0x0000000080850288        0x8 arch/arm/cpu/armv7/start.o
 .rel.text.usb_display_config
                0x0000000080850290       0xa8 arch/arm/cpu/armv7/start.o
 .rel.text.do_usbboot
                0x0000000080850338        0x8 arch/arm/cpu/armv7/start.o
 .rel.text.usb_display_desc.part.1
                0x0000000080850340       0x38 arch/arm/cpu/armv7/start.o
 .rel.text.do_usb_start
                0x0000000080850378        0x8 arch/arm/cpu/armv7/start.o
 .rel.text.do_usb
                0x0000000080850380      0x178 arch/arm/cpu/armv7/start.o
 .rel.text.common_diskboot
                0x00000000808504f8       0x38 arch/arm/cpu/armv7/start.o
 .rel.text.do_fastboot
                0x0000000080850530       0x28 arch/arm/cpu/armv7/start.o
 .rel.text.do_imgextract
                0x0000000080850558       0xc8 arch/arm/cpu/armv7/start.o
 .rel.text.do_spl
                0x0000000080850620       0x48 arch/arm/cpu/armv7/start.o
 .rel.text.do_dfu
                0x0000000080850668       0x18 arch/arm/cpu/armv7/start.o
 .rel.text.extract_val
                0x0000000080850680       0x10 arch/arm/cpu/armv7/start.o
 .rel.text.extract_env
                0x0000000080850690        0x8 arch/arm/cpu/armv7/start.o
 .rel.text.set_gpt_info.isra.0.constprop.2
                0x0000000080850698       0x50 arch/arm/cpu/armv7/start.o
 .rel.text.do_gpt
                0x00000000808506e8       0x68 arch/arm/cpu/armv7/start.o
 .rel.text.do_env_delete
                0x0000000080850750       0x10 arch/arm/cpu/armv7/start.o
 .rel.text.do_env_save
                0x0000000080850760       0x10 arch/arm/cpu/armv7/start.o
 .rel.text.do_env
                0x0000000080850770        0x8 arch/arm/cpu/armv7/start.o
 .rel.text.env_print
                0x0000000080850778       0x18 arch/arm/cpu/armv7/start.o
 .rel.text.do_env_print
                0x0000000080850790       0x10 arch/arm/cpu/armv7/start.o
 .rel.text.do_env_import
                0x00000000808507a0       0x58 arch/arm/cpu/armv7/start.o
 .rel.text.do_env_default
                0x00000000808507f8        0x8 arch/arm/cpu/armv7/start.o
 .rel.text.do_env_exists
                0x0000000080850800        0x8 arch/arm/cpu/armv7/start.o
 .rel.text._do_env_set.isra.1
                0x0000000080850808       0x30 arch/arm/cpu/armv7/start.o
 .rel.text.do_env_ask
                0x0000000080850838       0x10 arch/arm/cpu/armv7/start.o
 .rel.text.get_env_id
                0x0000000080850848        0x8 arch/arm/cpu/armv7/start.o
 .rel.text.setenv
                0x0000000080850850        0x8 arch/arm/cpu/armv7/start.o
 .rel.text.setenv_hex
                0x0000000080850858        0x8 arch/arm/cpu/armv7/start.o
 .rel.text.do_env_export
                0x0000000080850860       0x40 arch/arm/cpu/armv7/start.o
 .rel.text.getenv_f
                0x00000000808508a0        0x8 arch/arm/cpu/armv7/start.o
 .rel.text.getenv
                0x00000000808508a8        0x8 arch/arm/cpu/armv7/start.o
 .rel.text.do_env_edit.part.4
                0x00000000808508b0       0x18 arch/arm/cpu/armv7/start.o
 .rel.rodata.op_table
                0x00000000808508c8       0x68 arch/arm/cpu/armv7/start.o
 .rel.rodata.desc_and_len_tbl
                0x0000000080850930       0x30 arch/arm/cpu/armv7/start.o
 .rel.rodata.reg_0_5_desc_tbl
                0x0000000080850960       0x30 arch/arm/cpu/armv7/start.o
 .rel.rodata.reg_0_desc_tbl
                0x0000000080850990       0x50 arch/arm/cpu/armv7/start.o
 .rel.rodata.reg_1_desc_tbl
                0x00000000808509e0       0x80 arch/arm/cpu/armv7/start.o
 .rel.rodata.reg_2_desc_tbl
                0x0000000080850a60        0x8 arch/arm/cpu/armv7/start.o
 .rel.rodata.reg_3_desc_tbl
                0x0000000080850a68       0x18 arch/arm/cpu/armv7/start.o
 .rel.rodata.reg_4_desc_tbl
                0x0000000080850a80       0x60 arch/arm/cpu/armv7/start.o
 .rel.rodata.reg_5_desc_tbl
                0x0000000080850ae0       0x60 arch/arm/cpu/armv7/start.o
 .rel.rodata.keywords
                0x0000000080850b40       0x90 arch/arm/cpu/armv7/start.o
 .rel.rodata.op_adv
                0x0000000080850bd0       0x80 arch/arm/cpu/armv7/start.o
 .rel.rodata.CSWTCH.30
                0x0000000080850c50       0x28 arch/arm/cpu/armv7/start.o
 .rel.rodata.subcmd_list
                0x0000000080850c78       0x10 arch/arm/cpu/armv7/start.o
 .rel.u_boot_list_2_cmd_2_go
                0x0000000080850c88       0x20 arch/arm/cpu/armv7/start.o
 .rel.u_boot_list_2_cmd_2_reset
                0x0000000080850ca8       0x20 arch/arm/cpu/armv7/start.o
 .rel.data.cmd_bootm_sub
                0x0000000080850cc8       0xd8 arch/arm/cpu/armv7/start.o
 .rel.u_boot_list_2_cmd_2_boot
                0x0000000080850da0       0x20 arch/arm/cpu/armv7/start.o
 .rel.u_boot_list_2_cmd_2_bootd
                0x0000000080850dc0       0x20 arch/arm/cpu/armv7/start.o
 .rel.u_boot_list_2_cmd_2_bootm
                0x0000000080850de0       0x20 arch/arm/cpu/armv7/start.o
 .rel.u_boot_list_2_cmd_2_iminfo
                0x0000000080850e00       0x20 arch/arm/cpu/armv7/start.o
 .rel.u_boot_list_2_cmd_2_help
                0x0000000080850e20       0x20 arch/arm/cpu/armv7/start.o
 .rel.u_boot_list_2_cmd_2_question_mark
                0x0000000080850e40       0x20 arch/arm/cpu/armv7/start.o
 .rel.u_boot_list_2_cmd_2_version
                0x0000000080850e60       0x20 arch/arm/cpu/armv7/start.o
 .rel.u_boot_list_2_cmd_2_source
                0x0000000080850e80       0x20 arch/arm/cpu/armv7/start.o
 .rel.u_boot_list_2_cmd_2_bdinfo
                0x0000000080850ea0       0x20 arch/arm/cpu/armv7/start.o
 .rel.data.bootefi_device_obj
                0x0000000080850ec0       0x18 arch/arm/cpu/armv7/start.o
 .rel.data.loaded_image_info
                0x0000000080850ed8       0x10 arch/arm/cpu/armv7/start.o
 .rel.data.loaded_image_info_obj
                0x0000000080850ee8       0x28 arch/arm/cpu/armv7/start.o
 .rel.u_boot_list_2_cmd_2_bootefi
                0x0000000080850f10       0x20 arch/arm/cpu/armv7/start.o
 .rel.u_boot_list_2_cmd_2_bootz
                0x0000000080850f30       0x20 arch/arm/cpu/armv7/start.o
 .rel.u_boot_list_2_cmd_2_coninfo
                0x0000000080850f50       0x20 arch/arm/cpu/armv7/start.o
 .rel.u_boot_list_2_cmd_2_echo
                0x0000000080850f70       0x20 arch/arm/cpu/armv7/start.o
 .rel.u_boot_list_2_cmd_2_eeprom
                0x0000000080850f90       0x20 arch/arm/cpu/armv7/start.o
 .rel.u_boot_list_2_cmd_2_bootelf
                0x0000000080850fb0       0x20 arch/arm/cpu/armv7/start.o
 .rel.u_boot_list_2_cmd_2_bootvx
                0x0000000080850fd0       0x20 arch/arm/cpu/armv7/start.o
 .rel.u_boot_list_2_cmd_2_exit
                0x0000000080850ff0       0x20 arch/arm/cpu/armv7/start.o
 .rel.u_boot_list_2_cmd_2_ext4load
                0x0000000080851010       0x20 arch/arm/cpu/armv7/start.o
 .rel.u_boot_list_2_cmd_2_ext4ls
                0x0000000080851030       0x20 arch/arm/cpu/armv7/start.o
 .rel.u_boot_list_2_cmd_2_ext4size
                0x0000000080851050       0x20 arch/arm/cpu/armv7/start.o
 .rel.u_boot_list_2_cmd_2_ext4write
                0x0000000080851070       0x20 arch/arm/cpu/armv7/start.o
 .rel.u_boot_list_2_cmd_2_ext2load
                0x0000000080851090       0x20 arch/arm/cpu/armv7/start.o
 .rel.u_boot_list_2_cmd_2_ext2ls
                0x00000000808510b0       0x20 arch/arm/cpu/armv7/start.o
 .rel.u_boot_list_2_cmd_2_fatinfo
                0x00000000808510d0       0x20 arch/arm/cpu/armv7/start.o
 .rel.u_boot_list_2_cmd_2_fatload
                0x00000000808510f0       0x20 arch/arm/cpu/armv7/start.o
 .rel.u_boot_list_2_cmd_2_fatls
                0x0000000080851110       0x20 arch/arm/cpu/armv7/start.o
 .rel.u_boot_list_2_cmd_2_fatsize
                0x0000000080851130       0x20 arch/arm/cpu/armv7/start.o
 .rel.u_boot_list_2_cmd_2_fatwrite
                0x0000000080851150       0x20 arch/arm/cpu/armv7/start.o
 .rel.u_boot_list_2_cmd_2_fdt
                0x0000000080851170       0x20 arch/arm/cpu/armv7/start.o
 .rel.u_boot_list_2_cmd_2_fstype
                0x0000000080851190       0x20 arch/arm/cpu/armv7/start.o
 .rel.u_boot_list_2_cmd_2_load
                0x00000000808511b0       0x20 arch/arm/cpu/armv7/start.o
 .rel.u_boot_list_2_cmd_2_ls
                0x00000000808511d0       0x20 arch/arm/cpu/armv7/start.o
 .rel.u_boot_list_2_cmd_2_save
                0x00000000808511f0       0x20 arch/arm/cpu/armv7/start.o
 .rel.u_boot_list_2_cmd_2_size
                0x0000000080851210       0x20 arch/arm/cpu/armv7/start.o
 .rel.u_boot_list_2_cmd_2_gpio
                0x0000000080851230       0x20 arch/arm/cpu/armv7/start.o
 .rel.data.cmd_i2c_sub
                0x0000000080851250      0x1a0 arch/arm/cpu/armv7/start.o
 .rel.u_boot_list_2_cmd_2_i2c
                0x00000000808513f0       0x20 arch/arm/cpu/armv7/start.o
 .rel.u_boot_list_2_cmd_2_itest
                0x0000000080851410       0x20 arch/arm/cpu/armv7/start.o
 .rel.u_boot_list_2_cmd_2_loadb
                0x0000000080851430       0x20 arch/arm/cpu/armv7/start.o
 .rel.u_boot_list_2_cmd_2_loads
                0x0000000080851450       0x20 arch/arm/cpu/armv7/start.o
 .rel.u_boot_list_2_cmd_2_loadx
                0x0000000080851470       0x20 arch/arm/cpu/armv7/start.o
 .rel.u_boot_list_2_cmd_2_loady
                0x0000000080851490       0x20 arch/arm/cpu/armv7/start.o
 .rel.u_boot_list_2_cmd_2_base
                0x00000000808514b0       0x20 arch/arm/cpu/armv7/start.o
 .rel.u_boot_list_2_cmd_2_cmp
                0x00000000808514d0       0x20 arch/arm/cpu/armv7/start.o
 .rel.u_boot_list_2_cmd_2_cp
                0x00000000808514f0       0x20 arch/arm/cpu/armv7/start.o
 .rel.u_boot_list_2_cmd_2_crc32
                0x0000000080851510       0x20 arch/arm/cpu/armv7/start.o
 .rel.u_boot_list_2_cmd_2_loop
                0x0000000080851530       0x20 arch/arm/cpu/armv7/start.o
 .rel.u_boot_list_2_cmd_2_md
                0x0000000080851550       0x20 arch/arm/cpu/armv7/start.o
 .rel.u_boot_list_2_cmd_2_mm
                0x0000000080851570       0x20 arch/arm/cpu/armv7/start.o
 .rel.u_boot_list_2_cmd_2_mw
                0x0000000080851590       0x20 arch/arm/cpu/armv7/start.o
 .rel.u_boot_list_2_cmd_2_nm
                0x00000000808515b0       0x20 arch/arm/cpu/armv7/start.o
 .rel.u_boot_list_2_cmd_2_mii
                0x00000000808515d0       0x20 arch/arm/cpu/armv7/start.o
 .rel.u_boot_list_2_cmd_2_mdio
                0x00000000808515f0       0x20 arch/arm/cpu/armv7/start.o
 .rel.u_boot_list_2_cmd_2_sleep
                0x0000000080851610       0x20 arch/arm/cpu/armv7/start.o
 .rel.data.cmd_mmc
                0x0000000080851630      0x140 arch/arm/cpu/armv7/start.o
 .rel.u_boot_list_2_cmd_2_mmc
                0x0000000080851770       0x20 arch/arm/cpu/armv7/start.o
 .rel.u_boot_list_2_cmd_2_mmcinfo
                0x0000000080851790       0x20 arch/arm/cpu/armv7/start.o
 .rel.u_boot_list_2_cmd_2_bootp
                0x00000000808517b0       0x20 arch/arm/cpu/armv7/start.o
 .rel.u_boot_list_2_cmd_2_dhcp
                0x00000000808517d0       0x20 arch/arm/cpu/armv7/start.o
 .rel.u_boot_list_2_cmd_2_nfs
                0x00000000808517f0       0x20 arch/arm/cpu/armv7/start.o
 .rel.u_boot_list_2_cmd_2_ping
                0x0000000080851810       0x20 arch/arm/cpu/armv7/start.o
 .rel.u_boot_list_2_cmd_2_tftpboot
                0x0000000080851830       0x20 arch/arm/cpu/armv7/start.o
 .rel.u_boot_list_2_cmd_2_part
                0x0000000080851850       0x20 arch/arm/cpu/armv7/start.o
 .rel.data.cmd_pxe_sub
                0x0000000080851870       0x40 arch/arm/cpu/armv7/start.o
 .rel.data.pxe_default_paths
                0x00000000808518b0       0x18 arch/arm/cpu/armv7/start.o
 .rel.u_boot_list_2_cmd_2_pxe
                0x00000000808518c8       0x20 arch/arm/cpu/armv7/start.o
 .rel.u_boot_list_2_cmd_2_sysboot
                0x00000000808518e8       0x20 arch/arm/cpu/armv7/start.o
 .rel.u_boot_list_2_cmd_2_sf
                0x0000000080851908       0x20 arch/arm/cpu/armv7/start.o
 .rel.u_boot_list_2_cmd_2_sspi
                0x0000000080851928       0x20 arch/arm/cpu/armv7/start.o
 .rel.u_boot_list_2_cmd_2_false
                0x0000000080851948       0x18 arch/arm/cpu/armv7/start.o
 .rel.u_boot_list_2_cmd_2_test
                0x0000000080851960       0x20 arch/arm/cpu/armv7/start.o
 .rel.u_boot_list_2_cmd_2_true
                0x0000000080851980       0x18 arch/arm/cpu/armv7/start.o
 .rel.u_boot_list_2_cmd_2_usb
                0x0000000080851998       0x20 arch/arm/cpu/armv7/start.o
 .rel.u_boot_list_2_cmd_2_usbboot
                0x00000000808519b8       0x20 arch/arm/cpu/armv7/start.o
 .rel.u_boot_list_2_cmd_2_fastboot
                0x00000000808519d8       0x20 arch/arm/cpu/armv7/start.o
 .rel.u_boot_list_2_cmd_2_imxtract
                0x00000000808519f8       0x20 arch/arm/cpu/armv7/start.o
 .rel.data.__compound_literal.0
                0x0000000080851a18       0x38 arch/arm/cpu/armv7/start.o
 .rel.data.__compound_literal.1
                0x0000000080851a50       0x30 arch/arm/cpu/armv7/start.o
 .rel.data.cmd_spl_export_sub
                0x0000000080851a80       0x30 arch/arm/cpu/armv7/start.o
 .rel.data.cmd_spl_sub
                0x0000000080851ab0       0x18 arch/arm/cpu/armv7/start.o
 .rel.u_boot_list_2_cmd_2_spl
                0x0000000080851ac8       0x20 arch/arm/cpu/armv7/start.o
 .rel.u_boot_list_2_cmd_2_dfu
                0x0000000080851ae8       0x20 arch/arm/cpu/armv7/start.o
 .rel.u_boot_list_2_cmd_2_gpt
                0x0000000080851b08       0x20 arch/arm/cpu/armv7/start.o
 .rel.data.cmd_env_sub
                0x0000000080851b28      0x160 arch/arm/cpu/armv7/start.o
 .rel.u_boot_list_2_cmd_2_askenv
                0x0000000080851c88       0x20 arch/arm/cpu/armv7/start.o
 .rel.u_boot_list_2_cmd_2_editenv
                0x0000000080851ca8       0x28 arch/arm/cpu/armv7/start.o
 .rel.u_boot_list_2_cmd_2_env
                0x0000000080851cd0       0x20 arch/arm/cpu/armv7/start.o
 .rel.u_boot_list_2_cmd_2_printenv
                0x0000000080851cf0       0x28 arch/arm/cpu/armv7/start.o
 .rel.u_boot_list_2_cmd_2_run
                0x0000000080851d18       0x28 arch/arm/cpu/armv7/start.o
 .rel.u_boot_list_2_cmd_2_saveenv
                0x0000000080851d40       0x20 arch/arm/cpu/armv7/start.o
 .rel.u_boot_list_2_cmd_2_setenv
                0x0000000080851d60       0x28 arch/arm/cpu/armv7/start.o
 .rel.text.main_loop
                0x0000000080851d88       0x18 arch/arm/cpu/armv7/start.o
 .rel.text.jumptable_init
                0x0000000080851da0      0x100 arch/arm/cpu/armv7/start.o
 .rel.text.hash_lookup_algo
                0x0000000080851ea0        0x8 arch/arm/cpu/armv7/start.o
 .rel.text.hash_command
                0x0000000080851ea8       0x28 arch/arm/cpu/armv7/start.o
 .rel.text.mapset
                0x0000000080851ed0        0x8 arch/arm/cpu/armv7/start.o
 .rel.text.syntax_err
                0x0000000080851ed8        0x8 arch/arm/cpu/armv7/start.o
 .rel.text.xmalloc
                0x0000000080851ee0        0x8 arch/arm/cpu/armv7/start.o
 .rel.text.xrealloc
                0x0000000080851ee8        0x8 arch/arm/cpu/armv7/start.o
 .rel.text.done_word
                0x0000000080851ef0        0x8 arch/arm/cpu/armv7/start.o
 .rel.text.is_assignment
                0x0000000080851ef8        0x8 arch/arm/cpu/armv7/start.o
 .rel.text.file_get
                0x0000000080851f00       0x30 arch/arm/cpu/armv7/start.o
 .rel.text.do_showvar
                0x0000000080851f30       0x20 arch/arm/cpu/armv7/start.o
 .rel.text.b_addqchr
                0x0000000080851f50        0x8 arch/arm/cpu/armv7/start.o
 .rel.text.get_local_var
                0x0000000080851f58       0x20 arch/arm/cpu/armv7/start.o
 .rel.text.set_local_var
                0x0000000080851f78       0x20 arch/arm/cpu/armv7/start.o
 .rel.text.insert_var_value_sub
                0x0000000080851f98        0x8 arch/arm/cpu/armv7/start.o
 .rel.text.parse_string_outer
                0x0000000080851fa0       0x18 arch/arm/cpu/armv7/start.o
 .rel.text.run_list_real
                0x0000000080851fb8       0x48 arch/arm/cpu/armv7/start.o
 .rel.text.parse_stream_outer
                0x0000000080852000       0x70 arch/arm/cpu/armv7/start.o
 .rel.text.parse_file_outer
                0x0000000080852070       0x10 arch/arm/cpu/armv7/start.o
 .rel.text.u_boot_hush_start
                0x0000000080852080       0x18 arch/arm/cpu/armv7/start.o
 .rel.text.bootdelay_process
                0x0000000080852098       0x38 arch/arm/cpu/armv7/start.o
 .rel.text.autoboot_command
                0x00000000808520d0       0x30 arch/arm/cpu/armv7/start.o
 .rel.text.setup_mon_len
                0x0000000080852100       0x10 arch/arm/cpu/armv7/start.o
 .rel.text.announce_dram_init
                0x0000000080852110        0x8 arch/arm/cpu/armv7/start.o
 .rel.text.init_func_i2c
                0x0000000080852118       0x10 arch/arm/cpu/armv7/start.o
 .rel.text.init_baud_rate
                0x0000000080852128        0x8 arch/arm/cpu/armv7/start.o
 .rel.text.show_dram_config
                0x0000000080852130        0x8 arch/arm/cpu/armv7/start.o
 .rel.text.board_init_f
                0x0000000080852138        0x8 arch/arm/cpu/armv7/start.o
 .rel.text.initr_net
                0x0000000080852140        0x8 arch/arm/cpu/armv7/start.o
 .rel.text.initr_ethaddr
                0x0000000080852148        0x8 arch/arm/cpu/armv7/start.o
 .rel.text.initr_env
                0x0000000080852150       0x10 arch/arm/cpu/armv7/start.o
 .rel.text.initr_mmc
                0x0000000080852160        0x8 arch/arm/cpu/armv7/start.o
 .rel.text.initr_reloc_global_data
                0x0000000080852168       0x18 arch/arm/cpu/armv7/start.o
 .rel.text.board_init_r
                0x0000000080852180        0x8 arch/arm/cpu/armv7/start.o
 .rel.text.bootm_find_images
                0x0000000080852188       0x20 arch/arm/cpu/armv7/start.o
 .rel.text.bootm_decomp_image
                0x00000000808521a8       0x48 arch/arm/cpu/armv7/start.o
 .rel.text.do_bootm_states
                0x00000000808521f0      0x108 arch/arm/cpu/armv7/start.o
 .rel.text.do_bootm_rtems
                0x00000000808522f8        0x8 arch/arm/cpu/armv7/start.o
 .rel.text.do_bootm_plan9
                0x0000000080852300       0x18 arch/arm/cpu/armv7/start.o
 .rel.text.do_bootm_standalone
                0x0000000080852318       0x18 arch/arm/cpu/armv7/start.o
 .rel.text.do_bootm_qnxelf
                0x0000000080852330        0x8 arch/arm/cpu/armv7/start.o
 .rel.text.do_bootm_netbsd
                0x0000000080852338       0x18 arch/arm/cpu/armv7/start.o
 .rel.text.do_bootvx_fdt
                0x0000000080852350       0x38 arch/arm/cpu/armv7/start.o
 .rel.text.bootm_os_get_boot_func
                0x0000000080852388        0x8 arch/arm/cpu/armv7/start.o
 .rel.text.regex_callback
                0x0000000080852390       0x10 arch/arm/cpu/armv7/start.o
 .rel.text.env_attr_lookup
                0x00000000808523a0        0x8 arch/arm/cpu/armv7/start.o
 .rel.text.find_env_callback
                0x00000000808523a8       0x10 arch/arm/cpu/armv7/start.o
 .rel.text.on_callbacks
                0x00000000808523b8       0x20 arch/arm/cpu/armv7/start.o
 .rel.text.set_callback
                0x00000000808523d8        0x8 arch/arm/cpu/armv7/start.o
 .rel.text.env_callback_init
                0x00000000808523e0       0x20 arch/arm/cpu/armv7/start.o
 .rel.text.skip_num
                0x0000000080852400        0x8 arch/arm/cpu/armv7/start.o
 .rel.text.on_flags
                0x0000000080852408       0x20 arch/arm/cpu/armv7/start.o
 .rel.text.env_flags_parse_vartype
                0x0000000080852428       0x10 arch/arm/cpu/armv7/start.o
 .rel.text.env_flags_parse_varaccess
                0x0000000080852438       0x10 arch/arm/cpu/armv7/start.o
 .rel.text.set_flags
                0x0000000080852448       0x10 arch/arm/cpu/armv7/start.o
 .rel.text.env_flags_init
                0x0000000080852458       0x30 arch/arm/cpu/armv7/start.o
 .rel.text.env_flags_validate
                0x0000000080852488       0x38 arch/arm/cpu/armv7/start.o
 .rel.text.fini_mmc_for_env.isra.0
                0x00000000808524c0        0x8 arch/arm/cpu/armv7/start.o
 .rel.text.env_init
                0x00000000808524c8        0x8 arch/arm/cpu/armv7/start.o
 .rel.text.init_mmc_for_env
                0x00000000808524d0       0x28 arch/arm/cpu/armv7/start.o
 .rel.text.saveenv
                0x00000000808524f8       0x38 arch/arm/cpu/armv7/start.o
 .rel.text.env_relocate_spec
                0x0000000080852530       0x28 arch/arm/cpu/armv7/start.o
 .rel.text.fdt_find_or_add_subnode
                0x0000000080852558       0x10 arch/arm/cpu/armv7/start.o
 .rel.text.fdt_root
                0x0000000080852568       0x20 arch/arm/cpu/armv7/start.o
 .rel.text.fdt_initrd
                0x0000000080852588       0x30 arch/arm/cpu/armv7/start.o
 .rel.text.fdt_chosen
                0x00000000808525b8       0x20 arch/arm/cpu/armv7/start.o
 .rel.text.do_fixup_by_path
                0x00000000808525d8        0x8 arch/arm/cpu/armv7/start.o
 .rel.text.fdt_fixup_memory_banks
                0x00000000808525e0       0x38 arch/arm/cpu/armv7/start.o
 .rel.text.fdt_fixup_ethernet
                0x0000000080852618       0x30 arch/arm/cpu/armv7/start.o
 .rel.text.miiphy_get_dev_by_name
                0x0000000080852648       0x10 arch/arm/cpu/armv7/start.o
 .rel.text.miiphy_init
                0x0000000080852658       0x10 arch/arm/cpu/armv7/start.o
 .rel.text.mdio_register
                0x0000000080852668       0x18 arch/arm/cpu/armv7/start.o
 .rel.text.mdio_list_devices
                0x0000000080852680       0x28 arch/arm/cpu/armv7/start.o
 .rel.text.miiphy_set_current_dev
                0x00000000808526a8       0x10 arch/arm/cpu/armv7/start.o
 .rel.text.miiphy_get_active_dev
                0x00000000808526b8        0x8 arch/arm/cpu/armv7/start.o
 .rel.text.mdio_get_current_dev
                0x00000000808526c0        0x8 arch/arm/cpu/armv7/start.o
 .rel.text.mdio_phydev_for_ethname
                0x00000000808526c8       0x10 arch/arm/cpu/armv7/start.o
 .rel.text.miiphy_get_current_dev
                0x00000000808526d8        0x8 arch/arm/cpu/armv7/start.o
 .rel.text.miiphy_listdev
                0x00000000808526e0       0x30 arch/arm/cpu/armv7/start.o
 .rel.text.miiphy_is_1000base_x
                0x0000000080852710        0x8 arch/arm/cpu/armv7/start.o
 .rel.text.miiphy_speed
                0x0000000080852718       0x28 arch/arm/cpu/armv7/start.o
 .rel.text.miiphy_duplex
                0x0000000080852740       0x30 arch/arm/cpu/armv7/start.o
 .rel.text.usb_stop
                0x0000000080852770       0x18 arch/arm/cpu/armv7/start.o
 .rel.text.usb_disable_asynch
                0x0000000080852788        0x8 arch/arm/cpu/armv7/start.o
 .rel.text.usb_control_msg
                0x0000000080852790        0x8 arch/arm/cpu/armv7/start.o
 .rel.text.get_descriptor_len
                0x0000000080852798       0x10 arch/arm/cpu/armv7/start.o
 .rel.text.usb_string_sub
                0x00000000808527a8        0x8 arch/arm/cpu/armv7/start.o
 .rel.text.usb_get_configuration_len
                0x00000000808527b0       0x10 arch/arm/cpu/armv7/start.o
 .rel.text.usb_set_interface
                0x00000000808527c0        0x8 arch/arm/cpu/armv7/start.o
 .rel.text.usb_get_dev_index
                0x00000000808527c8        0x8 arch/arm/cpu/armv7/start.o
 .rel.text.usb_alloc_new_device
                0x00000000808527d0       0x18 arch/arm/cpu/armv7/start.o
 .rel.text.usb_free_device
                0x00000000808527e8       0x10 arch/arm/cpu/armv7/start.o
 .rel.text.usb_select_config
                0x00000000808527f8       0x70 arch/arm/cpu/armv7/start.o
 .rel.text.usb_setup_device
                0x0000000080852868       0x18 arch/arm/cpu/armv7/start.o
 .rel.text.usb_init
                0x0000000080852880       0x58 arch/arm/cpu/armv7/start.o
 .rel.text.usb_find_usb2_hub_address_port
                0x00000000808528d8        0x8 arch/arm/cpu/armv7/start.o
 .rel.text.usb_hub_reset
                0x00000000808528e0       0x10 arch/arm/cpu/armv7/start.o
 .rel.text.usb_hub_port_connect_change
                0x00000000808528f0       0x10 arch/arm/cpu/armv7/start.o
 .rel.text.usb_hub_configure
                0x0000000080852900       0x40 arch/arm/cpu/armv7/start.o
 .rel.text.usb_stor_BBB_transport
                0x0000000080852940       0x10 arch/arm/cpu/armv7/start.o
 .rel.text.usb_stor_CB_comdat
                0x0000000080852950        0x8 arch/arm/cpu/armv7/start.o
 .rel.text.usb_stor_CBI_get_status.isra.4
                0x0000000080852958        0x8 arch/arm/cpu/armv7/start.o
 .rel.text.usb_stor_CB_transport
                0x0000000080852960       0x10 arch/arm/cpu/armv7/start.o
 .rel.text.usb_request_sense.constprop.11
                0x0000000080852970        0x8 arch/arm/cpu/armv7/start.o
 .rel.text.usb_stor_read
                0x0000000080852978       0x10 arch/arm/cpu/armv7/start.o
 .rel.text.usb_stor_write
                0x0000000080852988       0x10 arch/arm/cpu/armv7/start.o
 .rel.text.usb_stor_info
                0x0000000080852998       0x20 arch/arm/cpu/armv7/start.o
 .rel.text.usb_storage_probe
                0x00000000808529b8       0x38 arch/arm/cpu/armv7/start.o
 .rel.text.usb_stor_get_info
                0x00000000808529f0       0x20 arch/arm/cpu/armv7/start.o
 .rel.text.usb_stor_scan
                0x0000000080852a10       0x40 arch/arm/cpu/armv7/start.o
 .rel.text.menu_get_choice
                0x0000000080852a50       0x18 arch/arm/cpu/armv7/start.o
 .rel.text.update_tftp
                0x0000000080852a68       0xa8 arch/arm/cpu/armv7/start.o
 .rel.text.env_get_addr
                0x0000000080852b10        0x8 arch/arm/cpu/armv7/start.o
 .rel.text.env_get_char
                0x0000000080852b18        0x8 arch/arm/cpu/armv7/start.o
 .rel.text.set_default_env
                0x0000000080852b20       0x40 arch/arm/cpu/armv7/start.o
 .rel.text.set_default_vars
                0x0000000080852b60       0x10 arch/arm/cpu/armv7/start.o
 .rel.text.env_import
                0x0000000080852b70       0x38 arch/arm/cpu/armv7/start.o
 .rel.text.env_export
                0x0000000080852ba8       0x28 arch/arm/cpu/armv7/start.o
 .rel.text.env_relocate
                0x0000000080852bd0        0x8 arch/arm/cpu/armv7/start.o
 .rel.text.env_complete
                0x0000000080852bd8       0x18 arch/arm/cpu/armv7/start.o
 .rel.text.console_setfile
                0x0000000080852bf0       0x30 arch/arm/cpu/armv7/start.o
 .rel.text.putc
                0x0000000080852c20        0x8 arch/arm/cpu/armv7/start.o
 .rel.text.puts
                0x0000000080852c28        0x8 arch/arm/cpu/armv7/start.o
 .rel.text.fgetc
                0x0000000080852c30        0x8 arch/arm/cpu/armv7/start.o
 .rel.text.ftstc
                0x0000000080852c38        0x8 arch/arm/cpu/armv7/start.o
 .rel.text.ctrlc
                0x0000000080852c40       0x10 arch/arm/cpu/armv7/start.o
 .rel.text.disable_ctrlc
                0x0000000080852c50        0x8 arch/arm/cpu/armv7/start.o
 .rel.text.had_ctrlc
                0x0000000080852c58        0x8 arch/arm/cpu/armv7/start.o
 .rel.text.clear_ctrlc
                0x0000000080852c60        0x8 arch/arm/cpu/armv7/start.o
 .rel.text.on_console
                0x0000000080852c68       0x20 arch/arm/cpu/armv7/start.o
 .rel.text.console_init_r
                0x0000000080852c88       0x10 arch/arm/cpu/armv7/start.o
 .rel.text.sbrk
                0x0000000080852c98       0x18 arch/arm/cpu/armv7/start.o
 .rel.text.mem_malloc_init
                0x0000000080852cb0       0x18 arch/arm/cpu/armv7/start.o
 .rel.text.malloc_trim
                0x0000000080852cc8       0x18 arch/arm/cpu/armv7/start.o
 .rel.text.free
                0x0000000080852ce0       0x20 arch/arm/cpu/armv7/start.o
 .rel.text.malloc
                0x0000000080852d00       0x48 arch/arm/cpu/armv7/start.o
 .rel.text.calloc
                0x0000000080852d48        0x8 arch/arm/cpu/armv7/start.o
 .rel.text.realloc
                0x0000000080852d50       0x10 arch/arm/cpu/armv7/start.o
 .rel.text.on_loadaddr
                0x0000000080852d60        0x8 arch/arm/cpu/armv7/start.o
 .rel.text.getenv_bootm_low
                0x0000000080852d68        0x8 arch/arm/cpu/armv7/start.o
 .rel.text.getenv_bootm_size
                0x0000000080852d70       0x10 arch/arm/cpu/armv7/start.o
 .rel.text.getenv_bootm_mapsize
                0x0000000080852d80        0x8 arch/arm/cpu/armv7/start.o
 .rel.text.genimg_print_size
                0x0000000080852d88       0x10 arch/arm/cpu/armv7/start.o
 .rel.text.genimg_print_time
                0x0000000080852d98        0x8 arch/arm/cpu/armv7/start.o
 .rel.text.genimg_get_os_name
                0x0000000080852da0       0x10 arch/arm/cpu/armv7/start.o
 .rel.text.genimg_get_arch_name
                0x0000000080852db0       0x10 arch/arm/cpu/armv7/start.o
 .rel.text.genimg_get_type_name
                0x0000000080852dc0       0x10 arch/arm/cpu/armv7/start.o
 .rel.text.genimg_get_comp_name
                0x0000000080852dd0       0x10 arch/arm/cpu/armv7/start.o
 .rel.text.image_print_contents
                0x0000000080852de0       0x60 arch/arm/cpu/armv7/start.o
 .rel.text.genimg_get_os_id
                0x0000000080852e40       0x10 arch/arm/cpu/armv7/start.o
 .rel.text.genimg_get_arch_id
                0x0000000080852e50       0x10 arch/arm/cpu/armv7/start.o
 .rel.text.genimg_get_type_id
                0x0000000080852e60       0x10 arch/arm/cpu/armv7/start.o
 .rel.text.genimg_get_comp_id
                0x0000000080852e70       0x10 arch/arm/cpu/armv7/start.o
 .rel.text.genimg_get_kernel_addr_fit
                0x0000000080852e80        0x8 arch/arm/cpu/armv7/start.o
 .rel.text.boot_get_ramdisk
                0x0000000080852e88       0x60 arch/arm/cpu/armv7/start.o
 .rel.text.boot_ramdisk_high
                0x0000000080852ee8       0x20 arch/arm/cpu/armv7/start.o
 .rel.text.boot_get_loadable
                0x0000000080852f08       0x20 arch/arm/cpu/armv7/start.o
 .rel.text.android_image_get_kernel
                0x0000000080852f28       0x38 arch/arm/cpu/armv7/start.o
 .rel.text.android_image_check_header
                0x0000000080852f60        0x8 arch/arm/cpu/armv7/start.o
 .rel.text.android_image_get_ramdisk
                0x0000000080852f68        0x8 arch/arm/cpu/armv7/start.o
 .rel.text.android_print_contents
                0x0000000080852f70       0x58 arch/arm/cpu/armv7/start.o
 .rel.text.fdt_error
                0x0000000080852fc8       0x10 arch/arm/cpu/armv7/start.o
 .rel.text.boot_fdt_add_mem_rsv_regions
                0x0000000080852fd8        0x8 arch/arm/cpu/armv7/start.o
 .rel.text.boot_relocate_fdt
                0x0000000080852fe0       0x40 arch/arm/cpu/armv7/start.o
 .rel.text.boot_get_fdt
                0x0000000080853020       0x90 arch/arm/cpu/armv7/start.o
 .rel.text.image_setup_libfdt
                0x00000000808530b0       0x20 arch/arm/cpu/armv7/start.o
 .rel.text.fit_image_get_address
                0x00000000808530d0        0x8 arch/arm/cpu/armv7/start.o
 .rel.text.fit_get_desc
                0x00000000808530d8        0x8 arch/arm/cpu/armv7/start.o
 .rel.text.fit_get_timestamp
                0x00000000808530e0        0x8 arch/arm/cpu/armv7/start.o
 .rel.text.fit_image_get_node
                0x00000000808530e8        0x8 arch/arm/cpu/armv7/start.o
 .rel.text.fit_image_get_os
                0x00000000808530f0        0x8 arch/arm/cpu/armv7/start.o
 .rel.text.fit_image_get_arch
                0x00000000808530f8        0x8 arch/arm/cpu/armv7/start.o
 .rel.text.fit_image_get_type
                0x0000000080853100        0x8 arch/arm/cpu/armv7/start.o
 .rel.text.fit_image_get_comp
                0x0000000080853108        0x8 arch/arm/cpu/armv7/start.o
 .rel.text.fit_image_get_load
                0x0000000080853110        0x8 arch/arm/cpu/armv7/start.o
 .rel.text.fit_image_get_entry
                0x0000000080853118        0x8 arch/arm/cpu/armv7/start.o
 .rel.text.fit_image_get_data
                0x0000000080853120        0x8 arch/arm/cpu/armv7/start.o
 .rel.text.fit_image_hash_get_algo
                0x0000000080853128        0x8 arch/arm/cpu/armv7/start.o
 .rel.text.fit_image_hash_get_value
                0x0000000080853130        0x8 arch/arm/cpu/armv7/start.o
 .rel.text.fit_image_print_data
                0x0000000080853138       0x60 arch/arm/cpu/armv7/start.o
 .rel.text.fit_image_print
                0x0000000080853198       0x88 arch/arm/cpu/armv7/start.o
 .rel.text.calculate_hash
                0x0000000080853220       0x20 arch/arm/cpu/armv7/start.o
 .rel.text.fit_image_verify
                0x0000000080853240       0x68 arch/arm/cpu/armv7/start.o
 .rel.text.fit_all_image_verify
                0x00000000808532a8       0x28 arch/arm/cpu/armv7/start.o
 .rel.text.fit_check_format
                0x00000000808532d0       0x18 arch/arm/cpu/armv7/start.o
 .rel.text.fit_conf_get_node
                0x00000000808532e8       0x10 arch/arm/cpu/armv7/start.o
 .rel.text.fit_conf_print
                0x00000000808532f8       0x70 arch/arm/cpu/armv7/start.o
 .rel.text.fit_print_contents
                0x0000000080853368       0x60 arch/arm/cpu/armv7/start.o
 .rel.text.fit_image_load
                0x00000000808533c8       0xa0 arch/arm/cpu/armv7/start.o
 .rel.text.boot_get_setup_fit
                0x0000000080853468        0x8 arch/arm/cpu/armv7/start.o
 .rel.text.stdio_get_list
                0x0000000080853470        0x8 arch/arm/cpu/armv7/start.o
 .rel.text.stdio_get_by_name
                0x0000000080853478        0x8 arch/arm/cpu/armv7/start.o
 .rel.text.stdio_register_dev
                0x0000000080853480        0x8 arch/arm/cpu/armv7/start.o
 .rel.text.stdio_init_tables
                0x0000000080853488        0x8 arch/arm/cpu/armv7/start.o
 .rel.text.stdio_add_devices
                0x0000000080853490       0x28 arch/arm/cpu/armv7/start.o
 .rel.text.do_run
                0x00000000808534b8        0x8 arch/arm/cpu/armv7/start.o
 .rel.text.delete_char.part.0
                0x00000000808534c0       0x10 arch/arm/cpu/armv7/start.o
 .rel.text.cread_add_char
                0x00000000808534d0        0x8 arch/arm/cpu/armv7/start.o
 .rel.text.cli_readline_into_buffer
                0x00000000808534d8       0x90 arch/arm/cpu/armv7/start.o
 .rel.text.cli_readline
                0x0000000080853568        0x8 arch/arm/cpu/armv7/start.o
 .rel.text.run_usb_dnl_gadget
                0x0000000080853570       0x38 arch/arm/cpu/armv7/start.o
 .rel.text.find_cmd
                0x00000000808535a8       0x10 arch/arm/cpu/armv7/start.o
 .rel.text.cmd_usage
                0x00000000808535b8       0x18 arch/arm/cpu/armv7/start.o
 .rel.text._do_help
                0x00000000808535d0       0x10 arch/arm/cpu/armv7/start.o
 .rel.text.var_complete
                0x00000000808535e0       0x10 arch/arm/cpu/armv7/start.o
 .rel.text.cmd_auto_complete
                0x00000000808535f0       0x40 arch/arm/cpu/armv7/start.o
 .rel.text.cmd_process
                0x0000000080853630       0x18 arch/arm/cpu/armv7/start.o
 .rel.text.cmd_process_error
                0x0000000080853648        0x8 arch/arm/cpu/armv7/start.o
 .rel.text.xyzModem_get_hdr
                0x0000000080853650       0x30 arch/arm/cpu/armv7/start.o
 .rel.text.xyzModem_stream_open
                0x0000000080853680       0x10 arch/arm/cpu/armv7/start.o
 .rel.text.xyzModem_stream_read
                0x0000000080853690        0x8 arch/arm/cpu/armv7/start.o
 .rel.text.xyzModem_stream_close
                0x0000000080853698       0x20 arch/arm/cpu/armv7/start.o
 .rel.text.xyzModem_stream_terminate
                0x00000000808536b8        0x8 arch/arm/cpu/armv7/start.o
 .rel.text.xyzModem_error
                0x00000000808536c0       0x10 arch/arm/cpu/armv7/start.o
 .rel.rodata.boot_os
                0x00000000808536d0       0x38 arch/arm/cpu/armv7/start.o
 .rel.rodata.uimage_arch
                0x0000000080853708      0x1a0 arch/arm/cpu/armv7/start.o
 .rel.rodata.uimage_comp
                0x00000000808538a8       0x70 arch/arm/cpu/armv7/start.o
 .rel.rodata.uimage_os
                0x0000000080853918       0xa0 arch/arm/cpu/armv7/start.o
 .rel.rodata.uimage_type
                0x00000000808539b8      0x200 arch/arm/cpu/armv7/start.o
 .rel.rodata.CSWTCH.123
                0x0000000080853bb8       0xd8 arch/arm/cpu/armv7/start.o
 .rel.rodata.CSWTCH.19
                0x0000000080853c90       0x40 arch/arm/cpu/armv7/start.o
 .rel.data.hash_algo
                0x0000000080853cd0       0x78 arch/arm/cpu/armv7/start.o
 .rel.data.reserved_list
                0x0000000080853d48       0x58 arch/arm/cpu/armv7/start.o
 .rel.u_boot_list_2_cmd_2_showvar
                0x0000000080853da0       0x20 arch/arm/cpu/armv7/start.o
 .rel.data.init_sequence_f
                0x0000000080853dc0      0x158 arch/arm/cpu/armv7/start.o
 .rel.data.init_sequence_r
                0x0000000080853f18      0x128 arch/arm/cpu/armv7/start.o
 .rel.u_boot_list_2_env_clbk_2_callbacks
                0x0000000080854040       0x10 arch/arm/cpu/armv7/start.o
 .rel.u_boot_list_2_env_clbk_2_flags
                0x0000000080854050       0x10 arch/arm/cpu/armv7/start.o
 .rel.data.env_name_spec
                0x0000000080854060        0x8 arch/arm/cpu/armv7/start.o
 .rel.data.usb_scan_list
                0x0000000080854068       0x10 arch/arm/cpu/armv7/start.o
 .rel.u_boot_list_2_blk_driver_2_usb
                0x0000000080854078       0x10 arch/arm/cpu/armv7/start.o
 .rel.data.env_htab
                0x0000000080854088        0x8 arch/arm/cpu/armv7/start.o
 .rel.u_boot_list_2_env_clbk_2_console
                0x0000000080854090       0x10 arch/arm/cpu/armv7/start.o
 .rel.data.av_  0x00000000808540a0      0x800 arch/arm/cpu/armv7/start.o
 .rel.u_boot_list_2_env_clbk_2_loadaddr
                0x00000000808548a0       0x10 arch/arm/cpu/armv7/start.o
 .rel.data.stdio_names
                0x00000000808548b0       0x18 arch/arm/cpu/armv7/start.o
 .rel.text.dev_print
                0x00000000808548c8       0x88 arch/arm/cpu/armv7/start.o
 .rel.text.part_init
                0x0000000080854950       0x10 arch/arm/cpu/armv7/start.o
 .rel.text.part_print
                0x0000000080854960       0xb8 arch/arm/cpu/armv7/start.o
 .rel.text.part_get_info
                0x0000000080854a18       0x10 arch/arm/cpu/armv7/start.o
 .rel.text.blk_get_device_by_str
                0x0000000080854a28       0x18 arch/arm/cpu/armv7/start.o
 .rel.text.blk_get_device_part_str
                0x0000000080854a40       0x60 arch/arm/cpu/armv7/start.o
 .rel.text.part_set_generic_name
                0x0000000080854aa0       0x18 arch/arm/cpu/armv7/start.o
 .rel.text.test_block_type
                0x0000000080854ab8       0x10 arch/arm/cpu/armv7/start.o
 .rel.text.print_partition_extended
                0x0000000080854ac8       0x30 arch/arm/cpu/armv7/start.o
 .rel.text.part_print_dos
                0x0000000080854af8        0x8 arch/arm/cpu/armv7/start.o
 .rel.text.part_get_info_extended
                0x0000000080854b00       0x20 arch/arm/cpu/armv7/start.o
 .rel.text.part_get_info_iso_verb
                0x0000000080854b20       0x70 arch/arm/cpu/armv7/start.o
 .rel.text.part_print_iso
                0x0000000080854b90       0x18 arch/arm/cpu/armv7/start.o
 .rel.text.print_efiname
                0x0000000080854ba8       0x10 arch/arm/cpu/armv7/start.o
 .rel.text.set_protective_mbr
                0x0000000080854bb8       0x18 arch/arm/cpu/armv7/start.o
 .rel.text.validate_gpt_entries
                0x0000000080854bd0       0x10 arch/arm/cpu/armv7/start.o
 .rel.text.validate_gpt_header
                0x0000000080854be0       0x30 arch/arm/cpu/armv7/start.o
 .rel.text.is_gpt_valid
                0x0000000080854c10       0x38 arch/arm/cpu/armv7/start.o
 .rel.text.is_pte_valid
                0x0000000080854c48       0x10 arch/arm/cpu/armv7/start.o
 .rel.text.part_print_efi
                0x0000000080854c58       0x60 arch/arm/cpu/armv7/start.o
 .rel.text.part_get_info_efi
                0x0000000080854cb8       0x40 arch/arm/cpu/armv7/start.o
 .rel.text.write_gpt_table
                0x0000000080854cf8        0x8 arch/arm/cpu/armv7/start.o
 .rel.text.gpt_fill_pte
                0x0000000080854d00       0x20 arch/arm/cpu/armv7/start.o
 .rel.text.gpt_restore
                0x0000000080854d20       0x10 arch/arm/cpu/armv7/start.o
 .rel.text.gpt_verify_headers
                0x0000000080854d30       0x18 arch/arm/cpu/armv7/start.o
 .rel.text.gpt_verify_partitions
                0x0000000080854d48       0x30 arch/arm/cpu/armv7/start.o
 .rel.rodata.CSWTCH.14
                0x0000000080854d78       0x40 arch/arm/cpu/armv7/start.o
 .rel.u_boot_list_2_part_driver_2_dos
                0x0000000080854db8       0x20 arch/arm/cpu/armv7/start.o
 .rel.u_boot_list_2_part_driver_2_iso
                0x0000000080854dd8       0x20 arch/arm/cpu/armv7/start.o
 .rel.u_boot_list_2_part_driver_2_a_efi
                0x0000000080854df8       0x20 arch/arm/cpu/armv7/start.o
 .rel.text.device_bind_common.isra.0
                0x0000000080854e18       0x10 arch/arm/cpu/armv7/start.o
 .rel.text.device_probe
                0x0000000080854e28       0x10 arch/arm/cpu/armv7/start.o
 .rel.text.dev_get_platdata
                0x0000000080854e38       0x10 arch/arm/cpu/armv7/start.o
 .rel.text.dev_get_priv
                0x0000000080854e48       0x10 arch/arm/cpu/armv7/start.o
 .rel.text.dev_get_uclass_priv
                0x0000000080854e58       0x10 arch/arm/cpu/armv7/start.o
 .rel.text.lists_driver_lookup_name
                0x0000000080854e68       0x10 arch/arm/cpu/armv7/start.o
 .rel.text.lists_uclass_lookup
                0x0000000080854e78       0x10 arch/arm/cpu/armv7/start.o
 .rel.text.lists_bind_drivers
                0x0000000080854e88       0x18 arch/arm/cpu/armv7/start.o
 .rel.text.dm_root
                0x0000000080854ea0        0x8 arch/arm/cpu/armv7/start.o
 .rel.text.dm_init
                0x0000000080854ea8       0x10 arch/arm/cpu/armv7/start.o
 .rel.text.dm_scan_platdata
                0x0000000080854eb8        0x8 arch/arm/cpu/armv7/start.o
 .rel.text.uclass_resolve_seq
                0x0000000080854ec0        0x8 arch/arm/cpu/armv7/start.o
 .rel.text.device_remove
                0x0000000080854ec8       0x20 arch/arm/cpu/armv7/start.o
 .rel.text.show_devices
                0x0000000080854ee8       0x30 arch/arm/cpu/armv7/start.o
 .rel.text.dm_dump_all
                0x0000000080854f18       0x10 arch/arm/cpu/armv7/start.o
 .rel.text.dm_dump_uclass
                0x0000000080854f28       0x20 arch/arm/cpu/armv7/start.o
 .rel.text.blk_driver_lookup_type
                0x0000000080854f48       0x10 arch/arm/cpu/armv7/start.o
 .rel.text.blk_get_devnum_by_typename
                0x0000000080854f58       0x10 arch/arm/cpu/armv7/start.o
 .rel.text.dfu_write_buffer_drain
                0x0000000080854f68       0x10 arch/arm/cpu/armv7/start.o
 .rel.text.dfu_free_buf
                0x0000000080854f78        0x8 arch/arm/cpu/armv7/start.o
 .rel.text.dfu_get_buf_size
                0x0000000080854f80        0x8 arch/arm/cpu/armv7/start.o
 .rel.text.dfu_get_buf
                0x0000000080854f88       0x28 arch/arm/cpu/armv7/start.o
 .rel.text.dfu_write_transaction_cleanup
                0x0000000080854fb0        0x8 arch/arm/cpu/armv7/start.o
 .rel.text.dfu_flush
                0x0000000080854fb8       0x10 arch/arm/cpu/armv7/start.o
 .rel.text.dfu_write
                0x0000000080854fc8       0x28 arch/arm/cpu/armv7/start.o
 .rel.text.dfu_read
                0x0000000080854ff0       0x40 arch/arm/cpu/armv7/start.o
 .rel.text.dfu_free_entities
                0x0000000080855030       0x10 arch/arm/cpu/armv7/start.o
 .rel.text.dfu_config_entities
                0x0000000080855040       0xa8 arch/arm/cpu/armv7/start.o
 .rel.text.dfu_init_env_entities
                0x00000000808550e8       0x28 arch/arm/cpu/armv7/start.o
 .rel.text.dfu_get_dev_type
                0x0000000080855110        0x8 arch/arm/cpu/armv7/start.o
 .rel.text.dfu_get_layout
                0x0000000080855118        0x8 arch/arm/cpu/armv7/start.o
 .rel.text.dfu_show_entities
                0x0000000080855120       0x18 arch/arm/cpu/armv7/start.o
 .rel.text.dfu_get_alt_number
                0x0000000080855138        0x8 arch/arm/cpu/armv7/start.o
 .rel.text.dfu_get_entity
                0x0000000080855140        0x8 arch/arm/cpu/armv7/start.o
 .rel.text.dfu_get_alt
                0x0000000080855148        0x8 arch/arm/cpu/armv7/start.o
 .rel.text.dfu_write_from_mem_addr
                0x0000000080855150       0x28 arch/arm/cpu/armv7/start.o
 .rel.text.mmc_block_op
                0x0000000080855178       0x28 arch/arm/cpu/armv7/start.o
 .rel.text.mmc_file_op
                0x00000000808551a0       0x60 arch/arm/cpu/armv7/start.o
 .rel.text.dfu_free_entity_mmc
                0x0000000080855200        0x8 arch/arm/cpu/armv7/start.o
 .rel.text.dfu_write_medium_mmc
                0x0000000080855208       0x20 arch/arm/cpu/armv7/start.o
 .rel.text.dfu_flush_medium_mmc
                0x0000000080855228       0x10 arch/arm/cpu/armv7/start.o
 .rel.text.dfu_get_medium_size_mmc
                0x0000000080855238       0x18 arch/arm/cpu/armv7/start.o
 .rel.text.dfu_read_medium_mmc
                0x0000000080855250       0x20 arch/arm/cpu/armv7/start.o
 .rel.text.dfu_fill_entity_mmc
                0x0000000080855270       0xa0 arch/arm/cpu/armv7/start.o
 .rel.text.dfu_read_medium_ram
                0x0000000080855310       0x20 arch/arm/cpu/armv7/start.o
 .rel.text.dfu_write_medium_ram
                0x0000000080855330       0x20 arch/arm/cpu/armv7/start.o
 .rel.text.dfu_fill_entity_ram
                0x0000000080855350       0x48 arch/arm/cpu/armv7/start.o
 .rel.text.dfu_tftp_write
                0x0000000080855398       0x28 arch/arm/cpu/armv7/start.o
 .rel.text.rtc_calc_weekday
                0x00000000808553c0        0x8 arch/arm/cpu/armv7/start.o
 .rel.text.rtc_to_tm
                0x00000000808553c8        0x8 arch/arm/cpu/armv7/start.o
 .rel.text.hw_watchdog_reset
                0x00000000808553d0        0x8 arch/arm/cpu/armv7/start.o
 .rel.rodata.root_info
                0x00000000808553d8        0x8 arch/arm/cpu/armv7/start.o
 .rel.rodata.CSWTCH.22
                0x00000000808553e0       0x18 arch/arm/cpu/armv7/start.o
 .rel.u_boot_list_2_driver_2_root_driver
                0x00000000808553f8        0x8 arch/arm/cpu/armv7/start.o
 .rel.u_boot_list_2_uclass_2_root
                0x0000000080855400        0x8 arch/arm/cpu/armv7/start.o
 .rel.data.dfu_list
                0x0000000080855408       0x10 arch/arm/cpu/armv7/start.o
 .rel.text.check_reserved
                0x0000000080855418       0x10 arch/arm/cpu/armv7/start.o
 .rel.text.dm_gpio_lookup_name
                0x0000000080855428        0x8 arch/arm/cpu/armv7/start.o
 .rel.text.gpio_direction_input
                0x0000000080855430        0x8 arch/arm/cpu/armv7/start.o
 .rel.text.gpio_direction_output
                0x0000000080855438        0x8 arch/arm/cpu/armv7/start.o
 .rel.text.dm_gpio_get_value
                0x0000000080855440        0x8 arch/arm/cpu/armv7/start.o
 .rel.text.dm_gpio_set_value
                0x0000000080855448        0x8 arch/arm/cpu/armv7/start.o
 .rel.text.gpio_get_status
                0x0000000080855450       0x28 arch/arm/cpu/armv7/start.o
 .rel.rodata.gpio_function
                0x0000000080855478       0x28 arch/arm/cpu/armv7/start.o
 .rel.rodata.gpio_omap_ops
                0x00000000808554a0       0x28 arch/arm/cpu/armv7/start.o
 .rel.rodata.omap_gpio_ids
                0x00000000808554c8       0x18 arch/arm/cpu/armv7/start.o
 .rel.u_boot_list_2_uclass_2_gpio
                0x00000000808554e0       0x18 arch/arm/cpu/armv7/start.o
 .rel.u_boot_list_2_driver_2_gpio_omap
                0x00000000808554f8       0x28 arch/arm/cpu/armv7/start.o
 .rel.text.i2c_get_adapter
                0x0000000080855520       0x18 arch/arm/cpu/armv7/start.o
 .rel.text.i2c_init_bus
                0x0000000080855538       0x10 arch/arm/cpu/armv7/start.o
 .rel.text.i2c_set_bus_num
                0x0000000080855548       0x18 arch/arm/cpu/armv7/start.o
 .rel.text.__omap24_i2c_setspeed
                0x0000000080855560       0x10 arch/arm/cpu/armv7/start.o
 .rel.text.wait_for_bb
                0x0000000080855570        0x8 arch/arm/cpu/armv7/start.o
 .rel.text.wait_for_event
                0x0000000080855578       0x10 arch/arm/cpu/armv7/start.o
 .rel.text.omap24_get_base.isra.0
                0x0000000080855588       0x10 arch/arm/cpu/armv7/start.o
 .rel.text.omap24_i2c_setspeed
                0x0000000080855598       0x18 arch/arm/cpu/armv7/start.o
 .rel.text.omap24_i2c_write
                0x00000000808555b0       0x58 arch/arm/cpu/armv7/start.o
 .rel.text.omap24_i2c_read
                0x0000000080855608       0x40 arch/arm/cpu/armv7/start.o
 .rel.text.omap24_i2c_probe
                0x0000000080855648        0x8 arch/arm/cpu/armv7/start.o
 .rel.text.omap24_i2c_init
                0x0000000080855650       0x10 arch/arm/cpu/armv7/start.o
 .rel.u_boot_list_2_i2c_2_omap24_0
                0x0000000080855660       0x30 arch/arm/cpu/armv7/start.o
 .rel.u_boot_list_2_i2c_2_omap24_1
                0x0000000080855690       0x30 arch/arm/cpu/armv7/start.o
 .rel.u_boot_list_2_i2c_2_omap24_2
                0x00000000808556c0       0x28 arch/arm/cpu/armv7/start.o
 .rel.text.find_mmc_device
                0x00000000808556e8       0x10 arch/arm/cpu/armv7/start.o
 .rel.text.mmc_get_next_devnum
                0x00000000808556f8        0x8 arch/arm/cpu/armv7/start.o
 .rel.text.get_mmc_num
                0x0000000080855700        0x8 arch/arm/cpu/armv7/start.o
 .rel.text.mmc_do_preinit
                0x0000000080855708        0x8 arch/arm/cpu/armv7/start.o
 .rel.text.mmc_list_init
                0x0000000080855710       0x10 arch/arm/cpu/armv7/start.o
 .rel.text.mmc_list_add
                0x0000000080855720        0x8 arch/arm/cpu/armv7/start.o
 .rel.text.print_mmc_devices
                0x0000000080855728       0x40 arch/arm/cpu/armv7/start.o
 .rel.text.mmc_create
                0x0000000080855768       0x18 arch/arm/cpu/armv7/start.o
 .rel.text.mmc_send_status
                0x0000000080855780       0x10 arch/arm/cpu/armv7/start.o
 .rel.text.mmc_bread
                0x0000000080855790       0x10 arch/arm/cpu/armv7/start.o
 .rel.text.mmc_hwpart_config
                0x00000000808557a0       0x48 arch/arm/cpu/armv7/start.o
 .rel.text.mmc_startup
                0x00000000808557e8       0x50 arch/arm/cpu/armv7/start.o
 .rel.text.mmc_start_init
                0x0000000080855838       0x10 arch/arm/cpu/armv7/start.o
 .rel.text.mmc_initialize
                0x0000000080855848        0x8 arch/arm/cpu/armv7/start.o
 .rel.text.omap_hsmmc_set_ios
                0x0000000080855850       0x10 arch/arm/cpu/armv7/start.o
 .rel.text.mmc_reset_controller_fsm
                0x0000000080855860       0x10 arch/arm/cpu/armv7/start.o
 .rel.text.omap_hsmmc_send_cmd
                0x0000000080855870       0x38 arch/arm/cpu/armv7/start.o
 .rel.text.mmc_init_stream
                0x00000000808558a8       0x18 arch/arm/cpu/armv7/start.o
 .rel.text.omap_hsmmc_init_setup
                0x00000000808558c0       0x20 arch/arm/cpu/armv7/start.o
 .rel.text.omap_mmc_init
                0x00000000808558e0       0x20 arch/arm/cpu/armv7/start.o
 .rel.text.mmc_berase
                0x0000000080855900       0x10 arch/arm/cpu/armv7/start.o
 .rel.text.mmc_bwrite
                0x0000000080855910       0x18 arch/arm/cpu/armv7/start.o
 .rel.rodata.omap_hsmmc_ops
                0x0000000080855928       0x28 arch/arm/cpu/armv7/start.o
 .rel.u_boot_list_2_blk_driver_2_mmc
                0x0000000080855950       0x18 arch/arm/cpu/armv7/start.o
 .rel.text.mtd_arg_off
                0x0000000080855968       0x10 arch/arm/cpu/armv7/start.o
 .rel.text.mtd_arg_off_size
                0x0000000080855978       0x28 arch/arm/cpu/armv7/start.o
 .rel.text.spi_flash_write_common
                0x00000000808559a0        0x8 arch/arm/cpu/armv7/start.o
 .rel.text.spi_flash_cmd_erase_ops
                0x00000000808559a8        0x8 arch/arm/cpu/armv7/start.o
 .rel.text.spi_flash_cmd_write_ops
                0x00000000808559b0        0x8 arch/arm/cpu/armv7/start.o
 .rel.text.spi_flash_scan
                0x00000000808559b8       0x80 arch/arm/cpu/armv7/start.o
 .rel.rodata.spi_flash_ids
                0x0000000080855a38       0x90 arch/arm/cpu/armv7/start.o
 .rel.text.cpsw_mdio_read
                0x0000000080855ac8       0x10 arch/arm/cpu/armv7/start.o
 .rel.text.cpsw_mdio_write
                0x0000000080855ad8       0x10 arch/arm/cpu/armv7/start.o
 .rel.text.cpsw_send
                0x0000000080855ae8        0x8 arch/arm/cpu/armv7/start.o
 .rel.text.cpsw_ale_add_mcast.constprop.9
                0x0000000080855af0        0x8 arch/arm/cpu/armv7/start.o
 .rel.text.cpsw_init
                0x0000000080855af8       0x30 arch/arm/cpu/armv7/start.o
 .rel.text._cpsw_register
                0x0000000080855b28       0x18 arch/arm/cpu/armv7/start.o
 .rel.text.cpsw_register
                0x0000000080855b40       0x28 arch/arm/cpu/armv7/start.o
 .rel.text.genphy_update_link
                0x0000000080855b68       0x28 arch/arm/cpu/armv7/start.o
 .rel.text.phy_register
                0x0000000080855b90        0x8 arch/arm/cpu/armv7/start.o
 .rel.text.get_phy_device_by_mask
                0x0000000080855b98       0x18 arch/arm/cpu/armv7/start.o
 .rel.text.phy_reset
                0x0000000080855bb0        0x8 arch/arm/cpu/armv7/start.o
 .rel.text.phy_connect_dev
                0x0000000080855bb8        0x8 arch/arm/cpu/armv7/start.o
 .rel.text.phy_connect
                0x0000000080855bc0        0x8 arch/arm/cpu/armv7/start.o
 .rel.text.phy_atheros_init
                0x0000000080855bc8       0x18 arch/arm/cpu/armv7/start.o
 .rel.text.phy_smsc_init
                0x0000000080855be0       0x20 arch/arm/cpu/armv7/start.o
 .rel.data.genphy_driver
                0x0000000080855c00       0x20 arch/arm/cpu/armv7/start.o
 .rel.data.phy_drivers
                0x0000000080855c20       0x10 arch/arm/cpu/armv7/start.o
 .rel.data.AR8021_driver
                0x0000000080855c30       0x20 arch/arm/cpu/armv7/start.o
 .rel.data.AR8031_driver
                0x0000000080855c50       0x20 arch/arm/cpu/armv7/start.o
 .rel.data.AR8035_driver
                0x0000000080855c70       0x20 arch/arm/cpu/armv7/start.o
 .rel.data.lan8700_driver
                0x0000000080855c90       0x20 arch/arm/cpu/armv7/start.o
 .rel.data.lan8710_driver
                0x0000000080855cb0       0x20 arch/arm/cpu/armv7/start.o
 .rel.data.lan8740_driver
                0x0000000080855cd0       0x20 arch/arm/cpu/armv7/start.o
 .rel.data.lan911x_driver
                0x0000000080855cf0       0x20 arch/arm/cpu/armv7/start.o
 .rel.text.serial_post_probe
                0x0000000080855d10       0x20 arch/arm/cpu/armv7/start.o
 .rel.text.serial_init
                0x0000000080855d30        0x8 arch/arm/cpu/armv7/start.o
 .rel.text.on_baudrate
                0x0000000080855d38       0x18 arch/arm/cpu/armv7/start.o
 .rel.rodata.ns16550_serial_ops
                0x0000000080855d50       0x20 arch/arm/cpu/armv7/start.o
 .rel.u_boot_list_2_env_clbk_2_baudrate
                0x0000000080855d70       0x10 arch/arm/cpu/armv7/start.o
 .rel.u_boot_list_2_uclass_2_serial
                0x0000000080855d80       0x18 arch/arm/cpu/armv7/start.o
 .rel.u_boot_list_2_driver_2_ns16550_serial
                0x0000000080855d98       0x18 arch/arm/cpu/armv7/start.o
 .rel.text.spi_setup_slave
                0x0000000080855db0       0x28 arch/arm/cpu/armv7/start.o
 .rel.text.spi_xfer
                0x0000000080855dd8       0x18 arch/arm/cpu/armv7/start.o
 .rel.text.usb_ep_autoconfig
                0x0000000080855df0        0x8 arch/arm/cpu/armv7/start.o
 .rel.text.usb_ep_autoconfig_reset
                0x0000000080855df8        0x8 arch/arm/cpu/armv7/start.o
 .rel.text.composite_suspend
                0x0000000080855e00        0x8 arch/arm/cpu/armv7/start.o
 .rel.text.composite_resume
                0x0000000080855e08        0x8 arch/arm/cpu/armv7/start.o
 .rel.text.composite_unbind
                0x0000000080855e10       0x28 arch/arm/cpu/armv7/start.o
 .rel.text.composite_bind
                0x0000000080855e38       0x10 arch/arm/cpu/armv7/start.o
 .rel.text.g_dnl_do_config
                0x0000000080855e48        0x8 arch/arm/cpu/armv7/start.o
 .rel.text.composite_disconnect
                0x0000000080855e50        0x8 arch/arm/cpu/armv7/start.o
 .rel.text.composite_setup
                0x0000000080855e58       0x10 arch/arm/cpu/armv7/start.o
 .rel.text.usb_composite_register
                0x0000000080855e68       0x18 arch/arm/cpu/armv7/start.o
 .rel.text.usb_composite_unregister
                0x0000000080855e80       0x10 arch/arm/cpu/armv7/start.o
 .rel.text.g_dnl_set_serialnumber
                0x0000000080855e90        0x8 arch/arm/cpu/armv7/start.o
 .rel.text.g_dnl_bind
                0x0000000080855e98       0x28 arch/arm/cpu/armv7/start.o
 .rel.text.g_dnl_detach
                0x0000000080855ec0        0x8 arch/arm/cpu/armv7/start.o
 .rel.text.g_dnl_trigger_detach
                0x0000000080855ec8        0x8 arch/arm/cpu/armv7/start.o
 .rel.text.g_dnl_clear_detach
                0x0000000080855ed0        0x8 arch/arm/cpu/armv7/start.o
 .rel.text.g_dnl_register
                0x0000000080855ed8       0x18 arch/arm/cpu/armv7/start.o
 .rel.text.g_dnl_unregister
                0x0000000080855ef0        0x8 arch/arm/cpu/armv7/start.o
 .rel.text.dfu_add
                0x0000000080855ef8       0x58 arch/arm/cpu/armv7/start.o
 .rel.text.dfu_handle
                0x0000000080855f50       0x10 arch/arm/cpu/armv7/start.o
 .rel.text.dnload_request_flush
                0x0000000080855f60        0x8 arch/arm/cpu/armv7/start.o
 .rel.text.dfu_bind
                0x0000000080855f68       0x18 arch/arm/cpu/armv7/start.o
 .rel.text.state_dfu_manifest_sync
                0x0000000080855f80        0x8 arch/arm/cpu/armv7/start.o
 .rel.text.state_dfu_dnload_idle
                0x0000000080855f88        0x8 arch/arm/cpu/armv7/start.o
 .rel.text.state_app_idle
                0x0000000080855f90        0x8 arch/arm/cpu/armv7/start.o
 .rel.text.state_dfu_manifest
                0x0000000080855f98        0x8 arch/arm/cpu/armv7/start.o
 .rel.text.state_dfu_idle
                0x0000000080855fa0       0x10 arch/arm/cpu/armv7/start.o
 .rel.text.rx_bytes_expected
                0x0000000080855fb0       0x10 arch/arm/cpu/armv7/start.o
 .rel.text.fastboot_unbind
                0x0000000080855fc0        0x8 arch/arm/cpu/armv7/start.o
 .rel.text.fastboot_add
                0x0000000080855fc8       0x38 arch/arm/cpu/armv7/start.o
 .rel.text.fastboot_set_alt
                0x0000000080856000       0x50 arch/arm/cpu/armv7/start.o
 .rel.text.fastboot_complete
                0x0000000080856050        0x8 arch/arm/cpu/armv7/start.o
 .rel.text.do_bootm_on_complete
                0x0000000080856058       0x20 arch/arm/cpu/armv7/start.o
 .rel.text.fastboot_tx_write_str
                0x0000000080856078       0x10 arch/arm/cpu/armv7/start.o
 .rel.text.rx_handler_command
                0x0000000080856088       0x38 arch/arm/cpu/armv7/start.o
 .rel.text.cb_continue
                0x00000000808560c0       0x18 arch/arm/cpu/armv7/start.o
 .rel.text.cb_boot
                0x00000000808560d8       0x18 arch/arm/cpu/armv7/start.o
 .rel.text.cb_download
                0x00000000808560f0       0x40 arch/arm/cpu/armv7/start.o
 .rel.text.rx_handler_dl_image
                0x0000000080856130       0x30 arch/arm/cpu/armv7/start.o
 .rel.text.cb_getvar
                0x0000000080856160       0x98 arch/arm/cpu/armv7/start.o
 .rel.text.fastboot_bind
                0x00000000808561f8       0x48 arch/arm/cpu/armv7/start.o
 .rel.text.cb_oem
                0x0000000080856240       0x38 arch/arm/cpu/armv7/start.o
 .rel.text.cb_reboot
                0x0000000080856278       0x28 arch/arm/cpu/armv7/start.o
 .rel.text.tx_complete
                0x00000000808562a0        0x8 arch/arm/cpu/armv7/start.o
 .rel.text.nibble
                0x00000000808562a8        0x8 arch/arm/cpu/armv7/start.o
 .rel.text.rx_complete
                0x00000000808562b0        0x8 arch/arm/cpu/armv7/start.o
 .rel.text.usb_eth_send
                0x00000000808562b8       0x30 arch/arm/cpu/armv7/start.o
 .rel.text.rndis_command_complete
                0x00000000808562e8       0x18 arch/arm/cpu/armv7/start.o
 .rel.text.rndis_control_ack_complete
                0x0000000080856300        0x8 arch/arm/cpu/armv7/start.o
 .rel.text.rndis_control_ack
                0x0000000080856308       0x10 arch/arm/cpu/armv7/start.o
 .rel.text.set_ether_config.isra.5
                0x0000000080856318       0x48 arch/arm/cpu/armv7/start.o
 .rel.text.eth_bind
                0x0000000080856360      0x138 arch/arm/cpu/armv7/start.o
 .rel.text.rx_submit.constprop.10
                0x0000000080856498       0x28 arch/arm/cpu/armv7/start.o
 .rel.text.usb_eth_recv
                0x00000000808564c0       0x28 arch/arm/cpu/armv7/start.o
 .rel.text.eth_setup
                0x00000000808564e8       0x98 arch/arm/cpu/armv7/start.o
 .rel.text.usb_eth_init
                0x0000000080856580       0x98 arch/arm/cpu/armv7/start.o
 .rel.text.usb_eth_initialize
                0x0000000080856618       0x30 arch/arm/cpu/armv7/start.o
 .rel.text.rndis_add_response
                0x0000000080856648        0x8 arch/arm/cpu/armv7/start.o
 .rel.text.rndis_signal_connect
                0x0000000080856650        0x8 arch/arm/cpu/armv7/start.o
 .rel.text.rndis_signal_disconnect
                0x0000000080856658        0x8 arch/arm/cpu/armv7/start.o
 .rel.text.rndis_set_host_mac
                0x0000000080856660        0x8 arch/arm/cpu/armv7/start.o
 .rel.text.rndis_get_state
                0x0000000080856668        0x8 arch/arm/cpu/armv7/start.o
 .rel.text.rndis_msg_parser
                0x0000000080856670       0x18 arch/arm/cpu/armv7/start.o
 .rel.text.rndis_register
                0x0000000080856688        0x8 arch/arm/cpu/armv7/start.o
 .rel.text.rndis_deregister
                0x0000000080856690        0x8 arch/arm/cpu/armv7/start.o
 .rel.text.rndis_set_param_dev
                0x0000000080856698        0x8 arch/arm/cpu/armv7/start.o
 .rel.text.rndis_set_param_vendor
                0x00000000808566a0        0x8 arch/arm/cpu/armv7/start.o
 .rel.text.rndis_set_param_medium
                0x00000000808566a8        0x8 arch/arm/cpu/armv7/start.o
 .rel.text.rndis_free_response
                0x00000000808566b0        0x8 arch/arm/cpu/armv7/start.o
 .rel.text.rndis_get_next_response
                0x00000000808566b8        0x8 arch/arm/cpu/armv7/start.o
 .rel.text.rndis_uninit
                0x00000000808566c0        0x8 arch/arm/cpu/armv7/start.o
 .rel.text.rndis_init
                0x00000000808566c8        0x8 arch/arm/cpu/armv7/start.o
 .rel.rodata.dfu_state
                0x00000000808566d0       0x50 arch/arm/cpu/armv7/start.o
 .rel.rodata.cmd_dispatch_info
                0x0000000080856720       0x60 arch/arm/cpu/armv7/start.o
 .rel.data.composite_driver
                0x0000000080856780       0x38 arch/arm/cpu/armv7/start.o
 .rel.data.g_dnl_composite_strings
                0x00000000808567b8        0x8 arch/arm/cpu/armv7/start.o
 .rel.data.g_dnl_driver
                0x00000000808567c0       0x20 arch/arm/cpu/armv7/start.o
 .rel.data.g_dnl_string_defs
                0x00000000808567e0       0x18 arch/arm/cpu/armv7/start.o
 .rel.data.g_dnl_string_tab
                0x00000000808567f8        0x8 arch/arm/cpu/armv7/start.o
 .rel.data.dfu_generic_strings
                0x0000000080856800        0x8 arch/arm/cpu/armv7/start.o
 .rel.data.dfu_runtime_descs
                0x0000000080856808        0x8 arch/arm/cpu/armv7/start.o
 .rel.data.dfu_strings
                0x0000000080856810        0x8 arch/arm/cpu/armv7/start.o
 .rel.data.strings_dfu_generic
                0x0000000080856818        0x8 arch/arm/cpu/armv7/start.o
 .rel.data.stringtab_dfu_generic
                0x0000000080856820        0x8 arch/arm/cpu/armv7/start.o
 .rel.u_boot_list_2_g_dnl_bind_callbacks_2___usb_function_name_usb_dnl_dfu
                0x0000000080856828       0x10 arch/arm/cpu/armv7/start.o
 .rel.data.fastboot_string_defs
                0x0000000080856838        0x8 arch/arm/cpu/armv7/start.o
 .rel.data.fastboot_strings
                0x0000000080856840        0x8 arch/arm/cpu/armv7/start.o
 .rel.data.fb_fs_function
                0x0000000080856848       0x18 arch/arm/cpu/armv7/start.o
 .rel.data.fb_hs_function
                0x0000000080856860       0x18 arch/arm/cpu/armv7/start.o
 .rel.data.stringtab_fastboot
                0x0000000080856878        0x8 arch/arm/cpu/armv7/start.o
 .rel.u_boot_list_2_g_dnl_bind_callbacks_2___usb_function_name_usb_dnl_fastboot
                0x0000000080856880       0x10 arch/arm/cpu/armv7/start.o
 .rel.data.fs_eth_function
                0x0000000080856890        0x8 arch/arm/cpu/armv7/start.o
 .rel.data.fs_rndis_function
                0x0000000080856898       0x50 arch/arm/cpu/armv7/start.o
 .rel.data.hs_eth_function
                0x00000000808568e8        0x8 arch/arm/cpu/armv7/start.o
 .rel.data.hs_rndis_function
                0x00000000808568f0       0x50 arch/arm/cpu/armv7/start.o
 .rel.data.l_priv
                0x0000000080856940        0x8 arch/arm/cpu/armv7/start.o
 .rel.data.strings
                0x0000000080856948       0x38 arch/arm/cpu/armv7/start.o
 .rel.data.stringtab
                0x0000000080856980        0x8 arch/arm/cpu/armv7/start.o
 .rel.text.init_peripheral_ep
                0x0000000080856988       0x30 arch/arm/cpu/armv7/start.o
 .rel.text.musb_gadget_setup
                0x00000000808569b8       0x10 arch/arm/cpu/armv7/start.o
 .rel.text.musb_g_ep0_irq
                0x00000000808569c8       0x80 arch/arm/cpu/armv7/start.o
 .rel.text.musb_load_testpacket
                0x0000000080856a48        0x8 arch/arm/cpu/armv7/start.o
 .rel.text.musb_init_controller
                0x0000000080856a50       0xa8 arch/arm/cpu/armv7/start.o
 .rel.text.construct_urb
                0x0000000080856af8        0x8 arch/arm/cpu/armv7/start.o
 .rel.text.submit_urb.constprop.8
                0x0000000080856b00       0x18 arch/arm/cpu/armv7/start.o
 .rel.text.musb_lowlevel_init
                0x0000000080856b18        0x8 arch/arm/cpu/armv7/start.o
 .rel.text.usb_lowlevel_stop
                0x0000000080856b20       0x10 arch/arm/cpu/armv7/start.o
 .rel.text.submit_bulk_msg
                0x0000000080856b30        0x8 arch/arm/cpu/armv7/start.o
 .rel.text.submit_control_msg
                0x0000000080856b38        0x8 arch/arm/cpu/armv7/start.o
 .rel.text.submit_int_msg
                0x0000000080856b40        0x8 arch/arm/cpu/armv7/start.o
 .rel.text.usb_reset_root_port
                0x0000000080856b48        0x8 arch/arm/cpu/armv7/start.o
 .rel.text.usb_lowlevel_init
                0x0000000080856b50        0x8 arch/arm/cpu/armv7/start.o
 .rel.text.usb_gadget_handle_interrupts
                0x0000000080856b58        0x8 arch/arm/cpu/armv7/start.o
 .rel.text.usb_gadget_register_driver
                0x0000000080856b60       0x28 arch/arm/cpu/armv7/start.o
 .rel.text.usb_gadget_unregister_driver
                0x0000000080856b88        0x8 arch/arm/cpu/armv7/start.o
 .rel.text.musb_register
                0x0000000080856b90       0x10 arch/arm/cpu/armv7/start.o
 .rel.text.musb_h_ep0_flush_fifo
                0x0000000080856ba0        0x8 arch/arm/cpu/armv7/start.o
 .rel.text.musb_h_tx_flush_fifo
                0x0000000080856ba8        0x8 arch/arm/cpu/armv7/start.o
 .rel.text.musb_start_urb
                0x0000000080856bb0       0x20 arch/arm/cpu/armv7/start.o
 .rel.text.musb_h_ep0_irq
                0x0000000080856bd0       0x20 arch/arm/cpu/armv7/start.o
 .rel.text.musb_host_rx
                0x0000000080856bf0       0x10 arch/arm/cpu/armv7/start.o
 .rel.text.dsps_musb_init
                0x0000000080856c00        0x8 arch/arm/cpu/armv7/start.o
 .rel.rodata.musb_ep_ops
                0x0000000080856c08       0x48 arch/arm/cpu/armv7/start.o
 .rel.rodata.musb_gadget_operations
                0x0000000080856c50       0x28 arch/arm/cpu/armv7/start.o
 .rel.rodata.CSWTCH.6
                0x0000000080856c78       0x38 arch/arm/cpu/armv7/start.o
 .rel.rodata.musb_g_ep0_ops
                0x0000000080856cb0       0x38 arch/arm/cpu/armv7/start.o
 .rel.rodata.CSWTCH.47
                0x0000000080856ce8       0x30 arch/arm/cpu/armv7/start.o
 .rel.data.musb_dsps_ops
                0x0000000080856d18       0x20 arch/arm/cpu/armv7/start.o
 .rel.text.fs_probe_unsupported
                0x0000000080856d38        0x8 arch/arm/cpu/armv7/start.o
 .rel.text.fs_get_info.part.0
                0x0000000080856d40        0x8 arch/arm/cpu/armv7/start.o
 .rel.text.fs_close
                0x0000000080856d48        0x8 arch/arm/cpu/armv7/start.o
 .rel.text.fs_set_blk_dev
                0x0000000080856d50       0x20 arch/arm/cpu/armv7/start.o
 .rel.text.fs_ls
                0x0000000080856d70        0x8 arch/arm/cpu/armv7/start.o
 .rel.text.fs_exists
                0x0000000080856d78        0x8 arch/arm/cpu/armv7/start.o
 .rel.text.fs_size
                0x0000000080856d80        0x8 arch/arm/cpu/armv7/start.o
 .rel.text.fs_read
                0x0000000080856d88       0x10 arch/arm/cpu/armv7/start.o
 .rel.text.fs_write
                0x0000000080856d98       0x10 arch/arm/cpu/armv7/start.o
 .rel.text.do_size
                0x0000000080856da8        0x8 arch/arm/cpu/armv7/start.o
 .rel.text.do_load
                0x0000000080856db0       0x50 arch/arm/cpu/armv7/start.o
 .rel.text.do_ls
                0x0000000080856e00        0x8 arch/arm/cpu/armv7/start.o
 .rel.text.do_save
                0x0000000080856e08       0x28 arch/arm/cpu/armv7/start.o
 .rel.text.do_fs_type
                0x0000000080856e30       0x10 arch/arm/cpu/armv7/start.o
 .rel.text.get_fs
                0x0000000080856e40        0x8 arch/arm/cpu/armv7/start.o
 .rel.text.ext4fs_free_node
                0x0000000080856e48        0x8 arch/arm/cpu/armv7/start.o
 .rel.text.ext4fs_read_file
                0x0000000080856e50        0x8 arch/arm/cpu/armv7/start.o
 .rel.text.ext4fs_ls
                0x0000000080856e58       0x10 arch/arm/cpu/armv7/start.o
 .rel.text.ext4fs_read
                0x0000000080856e68       0x10 arch/arm/cpu/armv7/start.o
 .rel.text.ext4_read_file
                0x0000000080856e78        0x8 arch/arm/cpu/armv7/start.o
 .rel.text.ext4fs_uuid
                0x0000000080856e80        0x8 arch/arm/cpu/armv7/start.o
 .rel.text.put_ext4
                0x0000000080856e88       0x20 arch/arm/cpu/armv7/start.o
 .rel.text.ext4fs_set_block_bmap
                0x0000000080856ea8        0x8 arch/arm/cpu/armv7/start.o
 .rel.text.ext4fs_reset_block_bmap
                0x0000000080856eb0        0x8 arch/arm/cpu/armv7/start.o
 .rel.text.ext4fs_set_inode_bmap
                0x0000000080856eb8        0x8 arch/arm/cpu/armv7/start.o
 .rel.text.ext4fs_reset_inode_bmap
                0x0000000080856ec0        0x8 arch/arm/cpu/armv7/start.o
 .rel.text.ext4fs_get_new_blk_no
                0x0000000080856ec8       0x10 arch/arm/cpu/armv7/start.o
 .rel.text.ext4fs_get_new_inode_no
                0x0000000080856ed8       0x10 arch/arm/cpu/armv7/start.o
 .rel.text.ext4fs_allocate_blocks
                0x0000000080856ee8       0x30 arch/arm/cpu/armv7/start.o
 .rel.text.ext4fs_iget
                0x0000000080856f18        0x8 arch/arm/cpu/armv7/start.o
 .rel.text.read_allocated_block
                0x0000000080856f20       0xd8 arch/arm/cpu/armv7/start.o
 .rel.text.ext4fs_update_parent_dentry
                0x0000000080856ff8       0x48 arch/arm/cpu/armv7/start.o
 .rel.text.search_dir
                0x0000000080857040        0x8 arch/arm/cpu/armv7/start.o
 .rel.text.ext4fs_get_parent_inode_num
                0x0000000080857048       0x28 arch/arm/cpu/armv7/start.o
 .rel.text.ext4fs_filename_unlink
                0x0000000080857070       0x18 arch/arm/cpu/armv7/start.o
 .rel.text.ext4fs_reinit_global
                0x0000000080857088       0x48 arch/arm/cpu/armv7/start.o
 .rel.text.ext4fs_close
                0x00000000808570d0       0x10 arch/arm/cpu/armv7/start.o
 .rel.text.ext4fs_iterate_dir
                0x00000000808570e0       0x30 arch/arm/cpu/armv7/start.o
 .rel.text.ext4fs_find_file1
                0x0000000080857110       0x10 arch/arm/cpu/armv7/start.o
 .rel.text.ext4fs_find_file
                0x0000000080857120        0x8 arch/arm/cpu/armv7/start.o
 .rel.text.ext4fs_open
                0x0000000080857128       0x10 arch/arm/cpu/armv7/start.o
 .rel.text.ext4fs_mount
                0x0000000080857138       0x10 arch/arm/cpu/armv7/start.o
 .rel.text.ext4fs_set_blk_dev
                0x0000000080857148       0x18 arch/arm/cpu/armv7/start.o
 .rel.text.ext4fs_devread
                0x0000000080857160       0x40 arch/arm/cpu/armv7/start.o
 .rel.text.ext4fs_update
                0x00000000808571a0       0x10 arch/arm/cpu/armv7/start.o
 .rel.text.ext4fs_get_bgdtable
                0x00000000808571b0        0x8 arch/arm/cpu/armv7/start.o
 .rel.text.ext4fs_deinit
                0x00000000808571b8        0x8 arch/arm/cpu/armv7/start.o
 .rel.text.ext4fs_init
                0x00000000808571c0       0x10 arch/arm/cpu/armv7/start.o
 .rel.text.ext4fs_write
                0x00000000808571d0       0x78 arch/arm/cpu/armv7/start.o
 .rel.text.ext4_write_file
                0x0000000080857248       0x10 arch/arm/cpu/armv7/start.o
 .rel.text.ext4fs_dump_metadata
                0x0000000080857258        0x8 arch/arm/cpu/armv7/start.o
 .rel.text.ext4fs_free_journal
                0x0000000080857260       0x28 arch/arm/cpu/armv7/start.o
 .rel.text.ext4fs_log_gdt
                0x0000000080857288       0x10 arch/arm/cpu/armv7/start.o
 .rel.text.ext4fs_log_journal
                0x0000000080857298       0x20 arch/arm/cpu/armv7/start.o
 .rel.text.ext4fs_put_metadata
                0x00000000808572b8       0x20 arch/arm/cpu/armv7/start.o
 .rel.text.ext4fs_push_revoke_blk
                0x00000000808572d8       0x28 arch/arm/cpu/armv7/start.o
 .rel.text.ext4fs_free_revoke_blks
                0x0000000080857300       0x18 arch/arm/cpu/armv7/start.o
 .rel.text.check_blknr_for_revoke
                0x0000000080857318        0x8 arch/arm/cpu/armv7/start.o
 .rel.text.recover_transaction
                0x0000000080857320       0x10 arch/arm/cpu/armv7/start.o
 .rel.text.print_jrnl_status
                0x0000000080857330       0x10 arch/arm/cpu/armv7/start.o
 .rel.text.ext4fs_check_journal_state
                0x0000000080857340       0x18 arch/arm/cpu/armv7/start.o
 .rel.text.ext4fs_init_journal
                0x0000000080857358       0x38 arch/arm/cpu/armv7/start.o
 .rel.text.ext4fs_update_journal
                0x0000000080857390       0x20 arch/arm/cpu/armv7/start.o
 .rel.text.ext2fs_crc16
                0x00000000808573b0        0x8 arch/arm/cpu/armv7/start.o
 .rel.text.downcase
                0x00000000808573b8        0x8 arch/arm/cpu/armv7/start.o
 .rel.text.disk_read
                0x00000000808573c0       0x10 arch/arm/cpu/armv7/start.o
 .rel.text.disk_write
                0x00000000808573d0       0x20 arch/arm/cpu/armv7/start.o
 .rel.text.flush_dirty_fat_buffer
                0x00000000808573f0        0x8 arch/arm/cpu/armv7/start.o
 .rel.text.get_fatent
                0x00000000808573f8        0x8 arch/arm/cpu/armv7/start.o
 .rel.text.get_cluster
                0x0000000080857400        0x8 arch/arm/cpu/armv7/start.o
 .rel.text.set_cluster
                0x0000000080857408        0x8 arch/arm/cpu/armv7/start.o
 .rel.text.read_bootsectandvi
                0x0000000080857410       0x20 arch/arm/cpu/armv7/start.o
 .rel.text.set_name
                0x0000000080857430        0x8 arch/arm/cpu/armv7/start.o
 .rel.text.check_overflow
                0x0000000080857438       0x10 arch/arm/cpu/armv7/start.o
 .rel.text.get_vfatname
                0x0000000080857448       0x10 arch/arm/cpu/armv7/start.o
 .rel.text.flush_dir_table.constprop.7
                0x0000000080857458       0x20 arch/arm/cpu/armv7/start.o
 .rel.text.do_fat_write
                0x0000000080857478       0xb0 arch/arm/cpu/armv7/start.o
 .rel.text.fat_set_blk_dev
                0x0000000080857528       0x28 arch/arm/cpu/armv7/start.o
 .rel.text.do_fat_read_at
                0x0000000080857550       0x80 arch/arm/cpu/armv7/start.o
 .rel.text.file_fat_detectfs
                0x00000000808575d0       0x70 arch/arm/cpu/armv7/start.o
 .rel.text.file_fat_read_at
                0x0000000080857640        0x8 arch/arm/cpu/armv7/start.o
 .rel.text.fat_read_file
                0x0000000080857648        0x8 arch/arm/cpu/armv7/start.o
 .rel.text.file_fat_write
                0x0000000080857650       0x10 arch/arm/cpu/armv7/start.o
 .rel.data.fstypes
                0x0000000080857660       0xd8 arch/arm/cpu/armv7/start.o
 .rel.text.efi_load_pe
                0x0000000080857738       0x88 arch/arm/cpu/armv7/start.o
 .rel.text.efi_save_gd
                0x00000000808577c0        0x8 arch/arm/cpu/armv7/start.o
 .rel.text.efi_restore_gd
                0x00000000808577c8       0x10 arch/arm/cpu/armv7/start.o
 .rel.text.efi_allocate_pages_ext
                0x00000000808577d8        0x8 arch/arm/cpu/armv7/start.o
 .rel.text.efi_free_pages_ext
                0x00000000808577e0        0x8 arch/arm/cpu/armv7/start.o
 .rel.text.efi_get_memory_map_ext
                0x00000000808577e8        0x8 arch/arm/cpu/armv7/start.o
 .rel.text.efi_calculate_crc32
                0x00000000808577f0        0x8 arch/arm/cpu/armv7/start.o
 .rel.text.efi_uninstall_multiple_protocol_interfaces
                0x00000000808577f8        0x8 arch/arm/cpu/armv7/start.o
 .rel.text.efi_install_multiple_protocol_interfaces
                0x0000000080857800        0x8 arch/arm/cpu/armv7/start.o
 .rel.text.efi_locate_protocol
                0x0000000080857808       0x18 arch/arm/cpu/armv7/start.o
 .rel.text.efi_locate_handle_buffer
                0x0000000080857820        0x8 arch/arm/cpu/armv7/start.o
 .rel.text.efi_close_protocol
                0x0000000080857828        0x8 arch/arm/cpu/armv7/start.o
 .rel.text.efi_open_protocol
                0x0000000080857830       0x10 arch/arm/cpu/armv7/start.o
 .rel.text.efi_disconnect_controller
                0x0000000080857840        0x8 arch/arm/cpu/armv7/start.o
 .rel.text.efi_connect_controller
                0x0000000080857848        0x8 arch/arm/cpu/armv7/start.o
 .rel.text.efi_set_watchdog_timer
                0x0000000080857850        0x8 arch/arm/cpu/armv7/start.o
 .rel.text.efi_stall
                0x0000000080857858        0x8 arch/arm/cpu/armv7/start.o
 .rel.text.efi_get_next_monotonic_count
                0x0000000080857860       0x10 arch/arm/cpu/armv7/start.o
 .rel.text.efi_exit_boot_services
                0x0000000080857870       0x10 arch/arm/cpu/armv7/start.o
 .rel.text.efi_unload_image
                0x0000000080857880       0x10 arch/arm/cpu/armv7/start.o
 .rel.text.efi_start_image
                0x0000000080857890       0x18 arch/arm/cpu/armv7/start.o
 .rel.text.efi_load_image
                0x00000000808578a8       0x18 arch/arm/cpu/armv7/start.o
 .rel.text.efi_locate_handle
                0x00000000808578c0       0x10 arch/arm/cpu/armv7/start.o
 .rel.text.efi_register_protocol_notify
                0x00000000808578d0        0x8 arch/arm/cpu/armv7/start.o
 .rel.text.efi_uninstall_protocol_interface
                0x00000000808578d8        0x8 arch/arm/cpu/armv7/start.o
 .rel.text.efi_reinstall_protocol_interface
                0x00000000808578e0        0x8 arch/arm/cpu/armv7/start.o
 .rel.text.efi_install_protocol_interface
                0x00000000808578e8        0x8 arch/arm/cpu/armv7/start.o
 .rel.text.efi_check_event
                0x00000000808578f0        0x8 arch/arm/cpu/armv7/start.o
 .rel.text.efi_close_event
                0x00000000808578f8       0x10 arch/arm/cpu/armv7/start.o
 .rel.text.efi_signal_event
                0x0000000080857908        0x8 arch/arm/cpu/armv7/start.o
 .rel.text.efi_set_timer
                0x0000000080857910       0x18 arch/arm/cpu/armv7/start.o
 .rel.text.efi_create_event
                0x0000000080857928       0x10 arch/arm/cpu/armv7/start.o
 .rel.text.efi_free_pool_ext
                0x0000000080857938        0x8 arch/arm/cpu/armv7/start.o
 .rel.text.efi_allocate_pool_ext
                0x0000000080857940        0x8 arch/arm/cpu/armv7/start.o
 .rel.text.efi_restore_tpl
                0x0000000080857948        0x8 arch/arm/cpu/armv7/start.o
 .rel.text.efi_raise_tpl
                0x0000000080857950        0x8 arch/arm/cpu/armv7/start.o
 .rel.text.efi_open_protocol_information
                0x0000000080857958        0x8 arch/arm/cpu/armv7/start.o
 .rel.text.efi_protocols_per_handle
                0x0000000080857960        0x8 arch/arm/cpu/armv7/start.o
 .rel.text.efi_locate_device_path
                0x0000000080857968        0x8 arch/arm/cpu/armv7/start.o
 .rel.text.efi_exit_func
                0x0000000080857970        0x8 arch/arm/cpu/armv7/start.o
 .rel.text.efi_timer_check
                0x0000000080857978        0x8 arch/arm/cpu/armv7/start.o
 .rel.text.efi_wait_for_event
                0x0000000080857980       0x10 arch/arm/cpu/armv7/start.o
 .rel.text.efi_install_configuration_table
                0x0000000080857990       0x10 arch/arm/cpu/armv7/start.o
 .rel.text.efi_install_configuration_table_ext
                0x00000000808579a0        0x8 arch/arm/cpu/armv7/start.o
 .rel.text.efi_runtime_relocate
                0x00000000808579a8       0x28 arch/arm/cpu/armv7/start.o
 .rel.text.efi_set_virtual_address_map
                0x00000000808579d0       0x18 arch/arm/cpu/armv7/start.o
 .rel.text.efi_cout_enable_cursor
                0x00000000808579e8        0x8 arch/arm/cpu/armv7/start.o
 .rel.text.efi_cout_set_cursor_position
                0x00000000808579f0       0x10 arch/arm/cpu/armv7/start.o
 .rel.text.efi_cout_clear_screen
                0x0000000080857a00        0x8 arch/arm/cpu/armv7/start.o
 .rel.text.efi_cout_output_string
                0x0000000080857a08       0x10 arch/arm/cpu/armv7/start.o
 .rel.text.efi_cout_set_mode
                0x0000000080857a18        0x8 arch/arm/cpu/armv7/start.o
 .rel.text.efi_cout_query_mode
                0x0000000080857a20       0x20 arch/arm/cpu/armv7/start.o
 .rel.text.efi_find_free_memory
                0x0000000080857a40        0x8 arch/arm/cpu/armv7/start.o
 .rel.text.efi_add_memory_map
                0x0000000080857a48       0x10 arch/arm/cpu/armv7/start.o
 .rel.text.efi_get_memory_map
                0x0000000080857a58        0x8 arch/arm/cpu/armv7/start.o
 .rel.text.efi_memory_init
                0x0000000080857a60       0x10 arch/arm/cpu/armv7/start.o
 .rel.text.efi_disk_add_dev.part.0
                0x0000000080857a70       0x48 arch/arm/cpu/armv7/start.o
 .rel.text.efi_disk_register
                0x0000000080857ab8       0x20 arch/arm/cpu/armv7/start.o
 .rel.text.efi_net_push
                0x0000000080857ad8        0x8 arch/arm/cpu/armv7/start.o
 .rel.text.efi_net_get_status
                0x0000000080857ae0        0x8 arch/arm/cpu/armv7/start.o
 .rel.text.efi_net_receive
                0x0000000080857ae8       0x28 arch/arm/cpu/armv7/start.o
 .rel.text.efi_net_transmit
                0x0000000080857b10        0x8 arch/arm/cpu/armv7/start.o
 .rel.text.efi_net_set_dhcp_ack
                0x0000000080857b18        0x8 arch/arm/cpu/armv7/start.o
 .rel.text.efi_net_register
                0x0000000080857b20       0xb0 arch/arm/cpu/armv7/start.o
 .rel.text.efi_smbios_register
                0x0000000080857bd0        0x8 arch/arm/cpu/armv7/start.o
 .rel.text.lzop_decompress
                0x0000000080857bd8        0x8 arch/arm/cpu/armv7/start.o
 .rel.text.inflate_fast
                0x0000000080857be0       0x18 arch/arm/cpu/armv7/start.o
 .rel.text.inflate_table
                0x0000000080857bf8       0x20 arch/arm/cpu/armv7/start.o
 .rel.text.inflateInit2_
                0x0000000080857c18       0x10 arch/arm/cpu/armv7/start.o
 .rel.text.inflate
                0x0000000080857c28       0xa0 arch/arm/cpu/armv7/start.o
 .rel.text.fdt_next_tag
                0x0000000080857cc8       0x48 arch/arm/cpu/armv7/start.o
 .rel.text.fdt_get_alias_namelen
                0x0000000080857d10        0x8 arch/arm/cpu/armv7/start.o
 .rel.text.fdt_strerror
                0x0000000080857d18       0x20 arch/arm/cpu/armv7/start.o
 .rel.text.fdt_address_cells
                0x0000000080857d38        0x8 arch/arm/cpu/armv7/start.o
 .rel.text.fdt_size_cells
                0x0000000080857d40        0x8 arch/arm/cpu/armv7/start.o
 .rel.text.crc16_ccitt
                0x0000000080857d48        0x8 arch/arm/cpu/armv7/start.o
 .rel.text.zunzip
                0x0000000080857d50       0x28 arch/arm/cpu/armv7/start.o
 .rel.text.gunzip
                0x0000000080857d78       0x10 arch/arm/cpu/armv7/start.o
 .rel.text.smbios_write_type3
                0x0000000080857d88        0x8 arch/arm/cpu/armv7/start.o
 .rel.text.smbios_write_type2
                0x0000000080857d90       0x10 arch/arm/cpu/armv7/start.o
 .rel.text.smbios_write_type0
                0x0000000080857da0       0x18 arch/arm/cpu/armv7/start.o
 .rel.text.smbios_write_type1
                0x0000000080857db8       0x18 arch/arm/cpu/armv7/start.o
 .rel.text.smbios_write_type4
                0x0000000080857dd0        0x8 arch/arm/cpu/armv7/start.o
 .rel.text.write_smbios_table
                0x0000000080857dd8       0x18 arch/arm/cpu/armv7/start.o
 .rel.text.initcall_run_list
                0x0000000080857df0        0x8 arch/arm/cpu/armv7/start.o
 .rel.text.lmb_alloc_base
                0x0000000080857df8        0x8 arch/arm/cpu/armv7/start.o
 .rel.text.list_sort
                0x0000000080857e00        0x8 arch/arm/cpu/armv7/start.o
 .rel.text.sha1_finish
                0x0000000080857e08        0x8 arch/arm/cpu/armv7/start.o
 .rel.text.sha256_finish
                0x0000000080857e10        0x8 arch/arm/cpu/armv7/start.o
 .rel.text.match_string
                0x0000000080857e18        0x8 arch/arm/cpu/armv7/start.o
 .rel.text.match_entry
                0x0000000080857e20        0x8 arch/arm/cpu/armv7/start.o
 .rel.text.hcreate_r
                0x0000000080857e28        0x8 arch/arm/cpu/armv7/start.o
 .rel.text.hdestroy_r
                0x0000000080857e30        0x8 arch/arm/cpu/armv7/start.o
 .rel.text.hmatch_r
                0x0000000080857e38        0x8 arch/arm/cpu/armv7/start.o
 .rel.text.hsearch_r
                0x0000000080857e40        0x8 arch/arm/cpu/armv7/start.o
 .rel.text.hdelete_r
                0x0000000080857e48        0x8 arch/arm/cpu/armv7/start.o
 .rel.text.hexport_r
                0x0000000080857e50       0x18 arch/arm/cpu/armv7/start.o
 .rel.text.himport_r
                0x0000000080857e68       0x20 arch/arm/cpu/armv7/start.o
 .rel.text.display_options
                0x0000000080857e88       0x10 arch/arm/cpu/armv7/start.o
 .rel.text.print_size
                0x0000000080857e98       0x28 arch/arm/cpu/armv7/start.o
 .rel.text.print_buffer
                0x0000000080857ec0       0x28 arch/arm/cpu/armv7/start.o
 .rel.text.crc32_no_comp
                0x0000000080857ee8        0x8 arch/arm/cpu/armv7/start.o
 .rel.text.hang
                0x0000000080857ef0        0x8 arch/arm/cpu/armv7/start.o
 .rel.text.skip_spaces
                0x0000000080857ef8        0x8 arch/arm/cpu/armv7/start.o
 .rel.text.strim
                0x0000000080857f00        0x8 arch/arm/cpu/armv7/start.o
 .rel.text.emit
                0x0000000080857f08        0x8 arch/arm/cpu/armv7/start.o
 .rel.text.store_char_in_data
                0x0000000080857f10        0x8 arch/arm/cpu/armv7/start.o
 .rel.text.match
                0x0000000080857f18       0x10 arch/arm/cpu/armv7/start.o
 .rel.text.quantifier
                0x0000000080857f28        0x8 arch/arm/cpu/armv7/start.o
 .rel.text.fixup_branch
                0x0000000080857f30        0x8 arch/arm/cpu/armv7/start.o
 .rel.text.compile
                0x0000000080857f38       0x28 arch/arm/cpu/armv7/start.o
 .rel.text.slre_compile
                0x0000000080857f60        0x8 arch/arm/cpu/armv7/start.o
 .rel.text.strncasecmp
                0x0000000080857f68        0x8 arch/arm/cpu/armv7/start.o
 .rel.text.strtok
                0x0000000080857f70        0x8 arch/arm/cpu/armv7/start.o
 .rel.text.uuid_str_valid
                0x0000000080857f78        0x8 arch/arm/cpu/armv7/start.o
 .rel.text.uuid_bin_to_str
                0x0000000080857f80       0x18 arch/arm/cpu/armv7/start.o
 .rel.text.string
                0x0000000080857f98        0x8 arch/arm/cpu/armv7/start.o
 .rel.text.number
                0x0000000080857fa0        0x8 arch/arm/cpu/armv7/start.o
 .rel.text.vsnprintf_internal
                0x0000000080857fa8       0x10 arch/arm/cpu/armv7/start.o
 .rel.text.simple_itoa
                0x0000000080857fb8        0x8 arch/arm/cpu/armv7/start.o
 .rel.text.simple_strtoul
                0x0000000080857fc0        0x8 arch/arm/cpu/armv7/start.o
 .rel.text.simple_strtoull
                0x0000000080857fc8        0x8 arch/arm/cpu/armv7/start.o
 .rel.text.trailing_strtoln
                0x0000000080857fd0        0x8 arch/arm/cpu/armv7/start.o
 .rel.rodata.efi_boot_services
                0x0000000080857fd8      0x150 arch/arm/cpu/armv7/start.o
 .rel.rodata.efi_runtime_detach_list
                0x0000000080858128       0x50 arch/arm/cpu/armv7/start.o
 .rel.rodata.efi_con_in
                0x0000000080858178       0x10 arch/arm/cpu/armv7/start.o
 .rel.rodata.efi_con_out
                0x0000000080858188       0x50 arch/arm/cpu/armv7/start.o
 .rel.rodata.efi_console_control
                0x00000000808581d8       0x18 arch/arm/cpu/armv7/start.o
 .rel.rodata.fdt_errtable
                0x00000000808581f0       0x70 arch/arm/cpu/armv7/start.o
 .rel.rodata.smbios_write_funcs
                0x0000000080858260       0x38 arch/arm/cpu/armv7/start.o
 .rel.data.efi_obj_list
                0x0000000080858298       0x10 arch/arm/cpu/armv7/start.o
 .rel.data.loaded_image_info_obj.9064
                0x00000000808582a8       0x10 arch/arm/cpu/armv7/start.o
 .rel.data.efi_runtime_mmio
                0x00000000808582b8       0x10 arch/arm/cpu/armv7/start.o
 .rel.data.efi_mem
                0x00000000808582c8       0x10 arch/arm/cpu/armv7/start.o
 .rel.text.arp_init
                0x00000000808582d8       0x30 arch/arm/cpu/armv7/start.o
 .rel.text.arp_raw_request
                0x0000000080858308       0x18 arch/arm/cpu/armv7/start.o
 .rel.text.arp_request
                0x0000000080858320       0x38 arch/arm/cpu/armv7/start.o
 .rel.text.arp_timeout_check
                0x0000000080858358       0x28 arch/arm/cpu/armv7/start.o
 .rel.text.arp_receive
                0x0000000080858380       0x40 arch/arm/cpu/armv7/start.o
 .rel.text.dhcp_extended
                0x00000000808583c0       0x30 arch/arm/cpu/armv7/start.o
 .rel.text.dhcp_process_options
                0x00000000808583f0       0x70 arch/arm/cpu/armv7/start.o
 .rel.text.dhcp_packet_process_options
                0x0000000080858460        0x8 arch/arm/cpu/armv7/start.o
 .rel.text.dhcp_handler
                0x0000000080858468       0x90 arch/arm/cpu/armv7/start.o
 .rel.text.bootp_reset
                0x00000000808584f8       0x20 arch/arm/cpu/armv7/start.o
 .rel.text.bootp_request
                0x0000000080858518       0x78 arch/arm/cpu/armv7/start.o
 .rel.text.bootp_timeout_handler
                0x0000000080858590       0x28 arch/arm/cpu/armv7/start.o
 .rel.text.eth_set_current_to_next
                0x00000000808585b8        0x8 arch/arm/cpu/armv7/start.o
 .rel.text.eth_set_dev
                0x00000000808585c0        0x8 arch/arm/cpu/armv7/start.o
 .rel.text.eth_get_dev_by_name
                0x00000000808585c8       0x28 arch/arm/cpu/armv7/start.o
 .rel.text.eth_get_dev_by_index
                0x00000000808585f0        0x8 arch/arm/cpu/armv7/start.o
 .rel.text.eth_get_dev_index
                0x00000000808585f8        0x8 arch/arm/cpu/armv7/start.o
 .rel.text.eth_write_hwaddr
                0x0000000080858600       0x30 arch/arm/cpu/armv7/start.o
 .rel.text.on_ethaddr
                0x0000000080858630       0x10 arch/arm/cpu/armv7/start.o
 .rel.text.eth_register
                0x0000000080858640       0x18 arch/arm/cpu/armv7/start.o
 .rel.text.eth_unregister
                0x0000000080858658       0x10 arch/arm/cpu/armv7/start.o
 .rel.text.eth_initialize
                0x0000000080858668       0x78 arch/arm/cpu/armv7/start.o
 .rel.text.eth_init
                0x00000000808586e0       0x10 arch/arm/cpu/armv7/start.o
 .rel.text.eth_halt
                0x00000000808586f0        0x8 arch/arm/cpu/armv7/start.o
 .rel.text.eth_send
                0x00000000808586f8        0x8 arch/arm/cpu/armv7/start.o
 .rel.text.eth_rx
                0x0000000080858700        0x8 arch/arm/cpu/armv7/start.o
 .rel.text.eth_setenv_enetaddr
                0x0000000080858708        0x8 arch/arm/cpu/armv7/start.o
 .rel.text.eth_getenv_enetaddr_by_index
                0x0000000080858710       0x10 arch/arm/cpu/armv7/start.o
 .rel.text.eth_setenv_enetaddr_by_index
                0x0000000080858720       0x10 arch/arm/cpu/armv7/start.o
 .rel.text.eth_mac_skip
                0x0000000080858730       0x10 arch/arm/cpu/armv7/start.o
 .rel.text.eth_get_name
                0x0000000080858740       0x10 arch/arm/cpu/armv7/start.o
 .rel.text.eth_current_changed
                0x0000000080858750       0x20 arch/arm/cpu/armv7/start.o
 .rel.text.eth_try_another
                0x0000000080858770       0x28 arch/arm/cpu/armv7/start.o
 .rel.text.eth_set_current
                0x0000000080858798       0x20 arch/arm/cpu/armv7/start.o
 .rel.text.net_clear_handlers
                0x00000000808587b8       0x20 arch/arm/cpu/armv7/start.o
 .rel.text.start_again_timeout_handler
                0x00000000808587d8        0x8 arch/arm/cpu/armv7/start.o
 .rel.text.on_ipaddr
                0x00000000808587e0        0x8 arch/arm/cpu/armv7/start.o
 .rel.text.on_gatewayip
                0x00000000808587e8        0x8 arch/arm/cpu/armv7/start.o
 .rel.text.on_netmask
                0x00000000808587f0        0x8 arch/arm/cpu/armv7/start.o
 .rel.text.on_serverip
                0x00000000808587f8        0x8 arch/arm/cpu/armv7/start.o
 .rel.text.net_init_loop
                0x0000000080858800       0x10 arch/arm/cpu/armv7/start.o
 .rel.text.net_auto_load
                0x0000000080858810       0x18 arch/arm/cpu/armv7/start.o
 .rel.text.net_init
                0x0000000080858828       0x20 arch/arm/cpu/armv7/start.o
 .rel.text.net_start_again
                0x0000000080858848       0x78 arch/arm/cpu/armv7/start.o
 .rel.text.net_loop
                0x00000000808588c0      0x110 arch/arm/cpu/armv7/start.o
 .rel.text.net_set_udp_handler
                0x00000000808589d0       0x10 arch/arm/cpu/armv7/start.o
 .rel.text.net_get_arp_handler
                0x00000000808589e0        0x8 arch/arm/cpu/armv7/start.o
 .rel.text.net_set_timeout_handler
                0x00000000808589e8       0x18 arch/arm/cpu/armv7/start.o
 .rel.text.net_process_received_packet
                0x0000000080858a00       0x40 arch/arm/cpu/armv7/start.o
 .rel.text.net_eth_hdr_size
                0x0000000080858a40        0x8 arch/arm/cpu/armv7/start.o
 .rel.text.net_set_ether
                0x0000000080858a48       0x10 arch/arm/cpu/armv7/start.o
 .rel.text.net_update_ether
                0x0000000080858a58        0x8 arch/arm/cpu/armv7/start.o
 .rel.text.net_set_ip_header
                0x0000000080858a60        0x8 arch/arm/cpu/armv7/start.o
 .rel.text.net_set_udp_header
                0x0000000080858a68        0x8 arch/arm/cpu/armv7/start.o
 .rel.text.net_send_udp_packet
                0x0000000080858a70       0x40 arch/arm/cpu/armv7/start.o
 .rel.text.on_bootfile
                0x0000000080858ab0        0x8 arch/arm/cpu/armv7/start.o
 .rel.text.ip_to_string
                0x0000000080858ab8        0x8 arch/arm/cpu/armv7/start.o
 .rel.text.on_nvlan
                0x0000000080858ac0        0x8 arch/arm/cpu/armv7/start.o
 .rel.text.on_vlan
                0x0000000080858ac8        0x8 arch/arm/cpu/armv7/start.o
 .rel.text.rpc_lookup_reply
                0x0000000080858ad0       0x18 arch/arm/cpu/armv7/start.o
 .rel.text.nfs_mount_reply
                0x0000000080858ae8       0x18 arch/arm/cpu/armv7/start.o
 .rel.text.nfs_umountall_reply
                0x0000000080858b00       0x18 arch/arm/cpu/armv7/start.o
 .rel.text.nfs_lookup_reply
                0x0000000080858b18       0x30 arch/arm/cpu/armv7/start.o
 .rel.text.nfs_readlink_reply
                0x0000000080858b48       0x20 arch/arm/cpu/armv7/start.o
 .rel.text.rpc_req
                0x0000000080858b68       0x40 arch/arm/cpu/armv7/start.o
 .rel.text.nfs_read_req
                0x0000000080858ba8       0x18 arch/arm/cpu/armv7/start.o
 .rel.text.nfs_read_reply.isra.0
                0x0000000080858bc0       0x30 arch/arm/cpu/armv7/start.o
 .rel.text.nfs_readlink_req
                0x0000000080858bf0       0x18 arch/arm/cpu/armv7/start.o
 .rel.text.nfs_umountall_req
                0x0000000080858c08       0x10 arch/arm/cpu/armv7/start.o
 .rel.text.nfs_lookup_req
                0x0000000080858c18       0x10 arch/arm/cpu/armv7/start.o
 .rel.text.nfs_send
                0x0000000080858c28       0x30 arch/arm/cpu/armv7/start.o
 .rel.text.nfs_handler
                0x0000000080858c58       0x70 arch/arm/cpu/armv7/start.o
 .rel.text.nfs_timeout_handler
                0x0000000080858cc8       0x20 arch/arm/cpu/armv7/start.o
 .rel.text.nfs_start
                0x0000000080858ce8       0x88 arch/arm/cpu/armv7/start.o
 .rel.text.ping_timeout_handler
                0x0000000080858d70        0x8 arch/arm/cpu/armv7/start.o
 .rel.text.ping_start
                0x0000000080858d78       0x58 arch/arm/cpu/armv7/start.o
 .rel.text.ping_receive
                0x0000000080858dd0       0x18 arch/arm/cpu/armv7/start.o
 .rel.text.tftp_send
                0x0000000080858de8       0x80 arch/arm/cpu/armv7/start.o
 .rel.text.tftp_handler
                0x0000000080858e68       0xd0 arch/arm/cpu/armv7/start.o
 .rel.text.tftp_timeout_handler
                0x0000000080858f38       0x40 arch/arm/cpu/armv7/start.o
 .rel.text.tftp_start
                0x0000000080858f78      0x148 arch/arm/cpu/armv7/start.o
 .rel.u_boot_list_2_env_clbk_2_ethaddr
                0x00000000808590c0       0x10 arch/arm/cpu/armv7/start.o
 .rel.u_boot_list_2_env_clbk_2_bootfile
                0x00000000808590d0       0x10 arch/arm/cpu/armv7/start.o
 .rel.u_boot_list_2_env_clbk_2_gatewayip
                0x00000000808590e0       0x10 arch/arm/cpu/armv7/start.o
 .rel.u_boot_list_2_env_clbk_2_ipaddr
                0x00000000808590f0       0x10 arch/arm/cpu/armv7/start.o
 .rel.u_boot_list_2_env_clbk_2_netmask
                0x0000000080859100       0x10 arch/arm/cpu/armv7/start.o
 .rel.u_boot_list_2_env_clbk_2_nvlan
                0x0000000080859110       0x10 arch/arm/cpu/armv7/start.o
 .rel.u_boot_list_2_env_clbk_2_serverip
                0x0000000080859120       0x10 arch/arm/cpu/armv7/start.o
 .rel.u_boot_list_2_env_clbk_2_vlan
                0x0000000080859130       0x10 arch/arm/cpu/armv7/start.o
 .rel.text.do_dm
                0x0000000080859140        0x8 arch/arm/cpu/armv7/start.o
 .rel.data.test_commands
                0x0000000080859148       0x60 arch/arm/cpu/armv7/start.o
 .rel.u_boot_list_2_cmd_2_dm
                0x00000000808591a8       0x20 arch/arm/cpu/armv7/start.o

.rel_dyn_end    0x00000000808591c8        0x0
 *(.__rel_dyn_end)
 .__rel_dyn_end
                0x00000000808591c8        0x0 arch/arm/lib/built-in.o

.hash           0x00000000808591c8       0x18
 *(.hash*)
 .hash          0x00000000808591c8       0x18 arch/arm/cpu/armv7/start.o

.end            0x00000000808591e0        0x0
 *(.__end)
 .__end         0x00000000808591e0        0x0 arch/arm/lib/built-in.o
                0x00000000808591e0                _image_binary_end = .
                0x000000008085a000                . = ALIGN (0x1000)

.mmutable
 *(.mmutable)

.bss_start      0x000000008084e388        0x0
 *(.__bss_start)
 .__bss_start   0x000000008084e388        0x0 arch/arm/lib/built-in.o
                0x000000008084e388                __bss_start
                0x000000008084e388                __bss_base = .

.bss            0x000000008084e388    0x4eb34
 *(.bss*)
 .bss.params    0x000000008084e388        0x4 arch/arm/lib/built-in.o
 .bss.data.8267
                0x000000008084e38c      0x400 cmd/built-in.o
 .bss.working_fdt
                0x000000008084e78c        0x4 cmd/built-in.o
                0x000000008084e78c                working_fdt
 .bss.i2c_dp_last_addr
                0x000000008084e790        0x4 cmd/built-in.o
 .bss.i2c_dp_last_alen
                0x000000008084e794        0x4 cmd/built-in.o
 .bss.i2c_dp_last_chip
                0x000000008084e798        0x4 cmd/built-in.o
 .bss.i2c_mm_last_addr
                0x000000008084e79c        0x4 cmd/built-in.o
 .bss.i2c_mm_last_alen
                0x000000008084e7a0        0x4 cmd/built-in.o
 .bss.i2c_mm_last_chip
                0x000000008084e7a4        0x4 cmd/built-in.o
 .bss.a_b       0x000000008084e7a8       0x18 cmd/built-in.o
 .bss.bin_start_address
                0x000000008084e7c0        0x4 cmd/built-in.o
 .bss.his_eol   0x000000008084e7c4        0x1 cmd/built-in.o
 .bss.his_pad_char
                0x000000008084e7c5        0x1 cmd/built-in.o
 *fill*         0x000000008084e7c6        0x2 
 .bss.his_pad_count
                0x000000008084e7c8        0x4 cmd/built-in.o
 .bss.his_quote
                0x000000008084e7cc        0x1 cmd/built-in.o
 *fill*         0x000000008084e7cd        0x3 
 .bss.k_data_escape
                0x000000008084e7d0        0x4 cmd/built-in.o
 .bss.k_data_escape_saved
                0x000000008084e7d4        0x4 cmd/built-in.o
 .bss.os_data_addr
                0x000000008084e7d8        0x4 cmd/built-in.o
 .bss.os_data_addr_saved
                0x000000008084e7dc        0x4 cmd/built-in.o
 .bss.os_data_char
                0x000000008084e7e0        0x4 cmd/built-in.o
 .bss.os_data_init
                0x000000008084e7e4        0x4 cmd/built-in.o
 .bss.os_data_state
                0x000000008084e7e8        0x4 cmd/built-in.o
 .bss.os_data_state_saved
                0x000000008084e7ec        0x4 cmd/built-in.o
 .bss.send_parms
                0x000000008084e7f0       0x14 cmd/built-in.o
 .bss.send_ptr  0x000000008084e804        0x4 cmd/built-in.o
 .bss.base_address
                0x000000008084e808        0x4 cmd/built-in.o
 .bss.dp_last_addr
                0x000000008084e80c        0x4 cmd/built-in.o
 .bss.dp_last_size
                0x000000008084e810        0x4 cmd/built-in.o
 .bss.mm_last_addr
                0x000000008084e814        0x4 cmd/built-in.o
 .bss.mm_last_size
                0x000000008084e818        0x4 cmd/built-in.o
 .bss.last_addr_hi
                0x000000008084e81c        0x8 cmd/built-in.o
 .bss.last_addr_lo
                0x000000008084e824        0x8 cmd/built-in.o
 .bss.last_data
                0x000000008084e82c        0x8 cmd/built-in.o
 .bss.last_mask
                0x000000008084e834        0x4 cmd/built-in.o
 .bss.last_op   0x000000008084e838        0x4 cmd/built-in.o
 .bss.last_reg_hi
                0x000000008084e83c        0x8 cmd/built-in.o
 .bss.last_reg_lo
                0x000000008084e844        0x8 cmd/built-in.o
 .bss.last_devad_hi
                0x000000008084e84c        0x4 cmd/built-in.o
 .bss.last_devad_lo
                0x000000008084e850        0x4 cmd/built-in.o
 .bss.do_getfile
                0x000000008084e854        0x4 cmd/built-in.o
 .bss.fs_argv   0x000000008084e858       0x14 cmd/built-in.o
 .bss.is_pxe    0x000000008084e86c        0x1 cmd/built-in.o
 *fill*         0x000000008084e86d        0x3 
 .bss.flash     0x000000008084e870        0x4 cmd/built-in.o
 .bss.bitlen    0x000000008084e874        0x4 cmd/built-in.o
 .bss.bus       0x000000008084e878        0x4 cmd/built-in.o
 .bss.cs        0x000000008084e87c        0x4 cmd/built-in.o
 .bss.din       0x000000008084e880       0x20 cmd/built-in.o
 .bss.dout      0x000000008084e8a0       0x20 cmd/built-in.o
 .bss.mode      0x000000008084e8c0        0x4 cmd/built-in.o
 .bss.buf.8616  0x000000008084e8c4       0x28 common/built-in.o
 .bss.do_repeat
                0x000000008084e8ec        0x4 common/built-in.o
 .bss.flag_repeat
                0x000000008084e8f0        0x4 common/built-in.o
 .bss.ifs       0x000000008084e8f4        0x4 common/built-in.o
 .bss.last_return_code
                0x000000008084e8f8        0x4 common/built-in.o
 .bss.map       0x000000008084e8fc      0x100 common/built-in.o
 .bss.the_command.8416
                0x000000008084e9fc      0x401 common/built-in.o
 *fill*         0x000000008084edfd        0x3 
 .bss.top_vars  0x000000008084ee00        0x4 common/built-in.o
 .bss.stored_bootdelay
                0x000000008084ee04        0x4 common/built-in.o
 .bss.monitor_flash_len
                0x000000008084ee08        0x4 common/built-in.o
                0x000000008084ee08                monitor_flash_len
 .bss.images    0x000000008084ee0c      0x164 common/built-in.o
                0x000000008084ee0c                images
 .bss.callback_list
                0x000000008084ef70        0x4 common/built-in.o
 .bss.flags_list
                0x000000008084ef74        0x4 common/built-in.o
 .bss.env_flags
                0x000000008084ef78        0x1 common/built-in.o
 .bss.env_mmc_orig_hwpart
                0x000000008084ef79        0x1 common/built-in.o
 *fill*         0x000000008084ef7a        0x2 
 .bss.env_ptr   0x000000008084ef7c        0x4 common/built-in.o
                0x000000008084ef7c                env_ptr
 .bss.current_mii
                0x000000008084ef80        0x4 common/built-in.o
 .bss.mii_devs  0x000000008084ef84        0x8 common/built-in.o
 .bss.asynch_allowed
                0x000000008084ef8c        0x4 common/built-in.o
 .bss.dev_index
                0x000000008084ef90        0x4 common/built-in.o
 *fill*         0x000000008084ef94       0x2c 
 .bss.usb_dev   0x000000008084efc0    0x13000 common/built-in.o
 .bss.usb_started
                0x0000000080861fc0        0x1 common/built-in.o
                0x0000000080861fc0                usb_started
 *fill*         0x0000000080861fc1        0x3 
 .bss.hub_dev   0x0000000080861fc4      0x380 common/built-in.o
 .bss.running.10188
                0x0000000080862344        0x4 common/built-in.o
 .bss.usb_hub_index
                0x0000000080862348        0x4 common/built-in.o
 .bss.CBWTag    0x000000008086234c        0x4 common/built-in.o
 *fill*         0x0000000080862350       0x30 
 .bss.usb_ccb   0x0000000080862380       0xc0 common/built-in.o
 .bss.usb_dev_desc
                0x0000000080862440      0x32c common/built-in.o
 .bss.usb_max_devs
                0x000000008086276c        0x4 common/built-in.o
 .bss.usb_stor  0x0000000080862770      0x16c common/built-in.o
 .bss.ctrlc_disabled
                0x00000000808628dc        0x4 common/built-in.o
 .bss.ctrlc_was_pressed
                0x00000000808628e0        0x4 common/built-in.o
 .bss.current_mallinfo
                0x00000000808628e4       0x28 common/built-in.o
 .bss.max_sbrked_mem
                0x000000008086290c        0x4 common/built-in.o
 .bss.max_total_mem
                0x0000000080862910        0x4 common/built-in.o
 .bss.mem_malloc_brk
                0x0000000080862914        0x4 common/built-in.o
                0x0000000080862914                mem_malloc_brk
 .bss.mem_malloc_end
                0x0000000080862918        0x4 common/built-in.o
                0x0000000080862918                mem_malloc_end
 .bss.mem_malloc_start
                0x000000008086291c        0x4 common/built-in.o
                0x000000008086291c                mem_malloc_start
 .bss.top_pad   0x0000000080862920        0x4 common/built-in.o
 .bss.andr_tmp_str
                0x0000000080862924      0x201 common/built-in.o
 *fill*         0x0000000080862b25        0x3 
 .bss.devs      0x0000000080862b28       0x4c common/built-in.o
 .bss.stdio_devices
                0x0000000080862b74        0xc common/built-in.o
                0x0000000080862b74                stdio_devices
 .bss.console_buffer
                0x0000000080862b80      0x401 common/built-in.o
                0x0000000080862b80                console_buffer
 *fill*         0x0000000080862f81        0x3 
 .bss.hist_add_idx
                0x0000000080862f84        0x4 common/built-in.o
 .bss.hist_lines
                0x0000000080862f88     0x5014 common/built-in.o
 .bss.hist_list
                0x0000000080867f9c       0x50 common/built-in.o
 .bss.hist_max  0x0000000080867fec        0x4 common/built-in.o
 .bss.hist_num  0x0000000080867ff0        0x4 common/built-in.o
 .bss.initted.8288
                0x0000000080867ff4        0x4 common/built-in.o
 .bss.tmp_buf   0x0000000080867ff8      0x400 common/built-in.o
 .bss.tmp_buf.8173
                0x00000000808683f8      0x200 common/built-in.o
 .bss.xyz       0x00000000808685f8      0x434 common/built-in.o
 .bss.tmpbuf    0x0000000080868a2c      0x800 disk/built-in.o
 .bss.name.8256
                0x000000008086922c       0x25 disk/built-in.o
 *fill*         0x0000000080869251        0x3 
 .bss.alt_num_cnt
                0x0000000080869254        0x4 drivers/built-in.o
 .bss.dfu_alt_num
                0x0000000080869258        0x4 drivers/built-in.o
 .bss.dfu_buf   0x000000008086925c        0x4 drivers/built-in.o
 .bss.dfu_buf_size
                0x0000000080869260        0x4 drivers/built-in.o
 .bss.dfu_hash_algo
                0x0000000080869264        0x4 drivers/built-in.o
 .bss.dfu_file_buf
                0x0000000080869268        0x4 drivers/built-in.o
 .bss.dfu_file_buf_filled
                0x000000008086926c        0x4 drivers/built-in.o
 .bss.dfu_file_buf_len
                0x0000000080869270        0x4 drivers/built-in.o
 .bss.mmc_devices
                0x0000000080869274        0x8 drivers/mmc/built-in.o
 .bss.initialized.10030
                0x000000008086927c        0x4 drivers/mmc/built-in.o
 .bss.mdio_regs
                0x0000000080869280        0x4 drivers/net/built-in.o
 .bss.epnum     0x0000000080869284        0x4 drivers/usb/gadget/built-in.o
 .bss.composite
                0x0000000080869288        0x4 drivers/usb/gadget/built-in.o
 .bss.g_dnl_detach_request
                0x000000008086928c        0x1 drivers/usb/gadget/built-in.o
 .bss.g_dnl_serial
                0x000000008086928d       0x20 drivers/usb/gadget/built-in.o
 *fill*         0x00000000808692ad        0x3 
 .bss.dfu_defer_flush
                0x00000000808692b0        0x4 drivers/usb/gadget/built-in.o
                0x00000000808692b0                dfu_defer_flush
 .bss.download_bytes
                0x00000000808692b4        0x4 drivers/usb/gadget/built-in.o
 .bss.download_size
                0x00000000808692b8        0x4 drivers/usb/gadget/built-in.o
 .bss.fastboot_func
                0x00000000808692bc        0x4 drivers/usb/gadget/built-in.o
 .bss.__control_req
                0x00000000808692c0      0x100 drivers/usb/gadget/built-in.o
 .bss.__status_req
                0x00000000808693c0       0x40 drivers/usb/gadget/built-in.o
 .bss.dev_addr  0x0000000080869400       0x12 drivers/usb/gadget/built-in.o
 *fill*         0x0000000080869412        0x2 
 .bss.eth_priv  0x0000000080869414      0x110 drivers/usb/gadget/built-in.o
                0x0000000080869414                eth_priv
 .bss.ethaddr   0x0000000080869524        0xd drivers/usb/gadget/built-in.o
 .bss.host_addr
                0x0000000080869531       0x12 drivers/usb/gadget/built-in.o
 .bss.manufacturer
                0x0000000080869543       0x32 drivers/usb/gadget/built-in.o
 *fill*         0x0000000080869575        0x3 
 .bss.packet_received
                0x0000000080869578        0x4 drivers/usb/gadget/built-in.o
                0x0000000080869578                packet_received
 .bss.packet_sent
                0x000000008086957c        0x4 drivers/usb/gadget/built-in.o
                0x000000008086957c                packet_sent
 .bss.rndis_resp_buf
                0x0000000080869580        0x8 drivers/usb/gadget/built-in.o
 .bss.serial_number
                0x0000000080869588       0x14 drivers/usb/gadget/built-in.o
 .bss.rndis_per_dev_params
                0x000000008086959c       0x3c drivers/usb/gadget/built-in.o
 .bss.gadget    0x00000000808695d8        0x4 drivers/usb/musb-new/built-in.o
 .bss.musb_host
                0x00000000808695dc       0x60 drivers/usb/musb-new/built-in.o
                0x00000000808695dc                musb_host
 .bss.fs_dev_desc
                0x000000008086963c        0x4 fs/built-in.o
 .bss.fs_partition
                0x0000000080869640       0x78 fs/built-in.o
 .bss.fs_type   0x00000000808696b8        0x4 fs/built-in.o
 *fill*         0x00000000808696bc        0x4 
 .bss.ext_fs    0x00000000808696c0       0x48 fs/built-in.o
                0x00000000808696c0                ext_fs
 .bss.ext4fs_file
                0x0000000080869708        0x4 fs/built-in.o
                0x0000000080869708                ext4fs_file
 .bss.ext4fs_indir1_block
                0x000000008086970c        0x4 fs/built-in.o
                0x000000008086970c                ext4fs_indir1_block
 .bss.ext4fs_indir1_size
                0x0000000080869710        0x4 fs/built-in.o
                0x0000000080869710                ext4fs_indir1_size
 .bss.ext4fs_indir2_block
                0x0000000080869714        0x4 fs/built-in.o
                0x0000000080869714                ext4fs_indir2_block
 .bss.ext4fs_indir2_size
                0x0000000080869718        0x4 fs/built-in.o
                0x0000000080869718                ext4fs_indir2_size
 .bss.ext4fs_indir3_block
                0x000000008086971c        0x4 fs/built-in.o
                0x000000008086971c                ext4fs_indir3_block
 .bss.ext4fs_indir3_size
                0x0000000080869720        0x4 fs/built-in.o
                0x0000000080869720                ext4fs_indir3_size
 .bss.ext4fs_root
                0x0000000080869724        0x4 fs/built-in.o
                0x0000000080869724                ext4fs_root
 .bss.g_parent_inode
                0x0000000080869728        0x4 fs/built-in.o
                0x0000000080869728                g_parent_inode
 .bss.symlinknest
                0x000000008086972c        0x4 fs/built-in.o
 .bss.ext4fs_blk_desc
                0x0000000080869730        0x4 fs/built-in.o
 .bss.part_info
                0x0000000080869734        0x4 fs/built-in.o
 .bss.part_offset
                0x0000000080869738        0x4 fs/built-in.o
                0x0000000080869738                part_offset
 .bss.dirty_block_ptr
                0x000000008086973c      0x190 fs/built-in.o
                0x000000008086973c                dirty_block_ptr
 .bss.gd_index  0x00000000808698cc        0x4 fs/built-in.o
                0x00000000808698cc                gd_index
 .bss.gindex    0x00000000808698d0        0x4 fs/built-in.o
                0x00000000808698d0                gindex
 .bss.journal_ptr
                0x00000000808698d4      0x190 fs/built-in.o
                0x00000000808698d4                journal_ptr
 .bss.jrnl_blk_idx
                0x0000000080869a64        0x4 fs/built-in.o
                0x0000000080869a64                jrnl_blk_idx
 .bss.prev_node
                0x0000000080869a68        0x4 fs/built-in.o
 .bss.revk_blk_list
                0x0000000080869a6c        0x4 fs/built-in.o
 .bss.cur_dev   0x0000000080869a70        0x4 fs/built-in.o
 .bss.cur_part_info
                0x0000000080869a74       0x78 fs/built-in.o
 .bss.dir_curclust
                0x0000000080869aec        0x4 fs/built-in.o
 *fill*         0x0000000080869af0       0x10 
 .bss.do_fat_read_at_block
                0x0000000080869b00    0x10000 fs/built-in.o
                0x0000000080869b00                do_fat_read_at_block
 .bss.empty_dentptr
                0x0000000080879b00        0x4 fs/built-in.o
 *fill*         0x0000000080879b04       0x3c 
 .bss.get_contents_vfatname_block
                0x0000000080879b40    0x10000 fs/built-in.o
                0x0000000080879b40                get_contents_vfatname_block
 .bss.get_dentfromdir_block
                0x0000000080889b40    0x10000 fs/built-in.o
                0x0000000080889b40                get_dentfromdir_block
 .bss.num_of_fats
                0x0000000080899b40        0x1 fs/built-in.o
 *fill*         0x0000000080899b41        0x3 
 .bss.total_sector
                0x0000000080899b44        0x4 fs/built-in.o
 .bss.app_gd    0x0000000080899b48        0x4 lib/built-in.o
 .bss.efi_gd    0x0000000080899b4c        0x4 lib/built-in.o
 .bss.mono.9112
                0x0000000080899b50        0x8 lib/built-in.o
 .bss.console_size_queried
                0x0000000080899b58        0x1 lib/built-in.o
 *fill*         0x0000000080899b59        0x3 
 .bss.dhcp_ack  0x0000000080899b5c        0x4 lib/built-in.o
 .bss.new_rx_packet
                0x0000000080899b60        0x1 lib/built-in.o
 *fill*         0x0000000080899b61        0x3 
 .bss.new_tx_packet
                0x0000000080899b64        0x4 lib/built-in.o
 .bss.errno     0x0000000080899b68        0x4 lib/built-in.o
                0x0000000080899b68                errno
 .bss.___strtok
                0x0000000080899b6c        0x4 lib/built-in.o
                0x0000000080899b6c                ___strtok
 .bss.local.8354
                0x0000000080899b70       0x16 lib/built-in.o
 *fill*         0x0000000080899b86        0x2 
 .bss.arp_tx_packet
                0x0000000080899b88        0x4 net/built-in.o
 .bss.arp_tx_packet_buf
                0x0000000080899b8c      0x640 net/built-in.o
 .bss.arp_wait_packet_ethaddr
                0x000000008089a1cc        0x4 net/built-in.o
                0x000000008089a1cc                arp_wait_packet_ethaddr
 .bss.arp_wait_timer_start
                0x000000008089a1d0        0x4 net/built-in.o
                0x000000008089a1d0                arp_wait_timer_start
 .bss.arp_wait_try
                0x000000008089a1d4        0x4 net/built-in.o
                0x000000008089a1d4                arp_wait_try
 .bss.arp_wait_tx_packet_size
                0x000000008089a1d8        0x4 net/built-in.o
                0x000000008089a1d8                arp_wait_tx_packet_size
 .bss.net_arp_wait_packet_ip
                0x000000008089a1dc        0x4 net/built-in.o
                0x000000008089a1dc                net_arp_wait_packet_ip
 .bss.net_arp_wait_reply_ip
                0x000000008089a1e0        0x4 net/built-in.o
 .bss.bootp_ids
                0x000000008089a1e4       0x10 net/built-in.o
                0x000000008089a1e4                bootp_ids
 .bss.bootp_num_ids
                0x000000008089a1f4        0x4 net/built-in.o
                0x000000008089a1f4                bootp_num_ids
 .bss.bootp_start
                0x000000008089a1f8        0x4 net/built-in.o
                0x000000008089a1f8                bootp_start
 .bss.bootp_timeout
                0x000000008089a1fc        0x4 net/built-in.o
                0x000000008089a1fc                bootp_timeout
 .bss.bootp_try
                0x000000008089a200        0x4 net/built-in.o
                0x000000008089a200                bootp_try
 .bss.dhcp_leasetime
                0x000000008089a204        0x4 net/built-in.o
 .bss.dhcp_option_overload
                0x000000008089a208        0x1 net/built-in.o
 *fill*         0x000000008089a209        0x3 
 .bss.dhcp_server_ip
                0x000000008089a20c        0x4 net/built-in.o
 .bss.dhcp_state
                0x000000008089a210        0x4 net/built-in.o
 .bss.net_hostname
                0x000000008089a214       0x20 net/built-in.o
                0x000000008089a214                net_hostname
 .bss.net_nis_domain
                0x000000008089a234       0x20 net/built-in.o
                0x000000008089a234                net_nis_domain
 .bss.net_root_path
                0x000000008089a254       0x40 net/built-in.o
                0x000000008089a254                net_root_path
 .bss.time_taken_max
                0x000000008089a294        0x4 net/built-in.o
 .bss.eth_current
                0x000000008089a298        0x4 net/built-in.o
                0x000000008089a298                eth_current
 .bss.eth_devices
                0x000000008089a29c        0x4 net/built-in.o
 .bss.index.8933
                0x000000008089a2a0        0x4 net/built-in.o
 .bss.act.9801  0x000000008089a2a4        0x4 net/built-in.o
 .bss.env_changed_id.9802
                0x000000008089a2a8        0x4 net/built-in.o
 .bss.first_failed.9796
                0x000000008089a2ac        0x4 net/built-in.o
 .bss.arp_packet_handler
                0x000000008089a2b0        0x4 net/built-in.o
 .bss.net_boot_file_expected_size_in_blocks
                0x000000008089a2b4        0x4 net/built-in.o
                0x000000008089a2b4                net_boot_file_expected_size_in_blocks
 .bss.net_boot_file_name
                0x000000008089a2b8      0x400 net/built-in.o
                0x000000008089a2b8                net_boot_file_name
 .bss.net_boot_file_size
                0x000000008089a6b8        0x4 net/built-in.o
                0x000000008089a6b8                net_boot_file_size
 .bss.net_dev_exists
                0x000000008089a6bc        0x4 net/built-in.o
 .bss.net_dns_server
                0x000000008089a6c0        0x4 net/built-in.o
                0x000000008089a6c0                net_dns_server
 .bss.net_dns_server2
                0x000000008089a6c4        0x4 net/built-in.o
                0x000000008089a6c4                net_dns_server2
 .bss.net_ethaddr
                0x000000008089a6c8        0x6 net/built-in.o
                0x000000008089a6c8                net_ethaddr
 *fill*         0x000000008089a6ce        0x2 
 .bss.net_gateway
                0x000000008089a6d0        0x4 net/built-in.o
                0x000000008089a6d0                net_gateway
 .bss.net_ip    0x000000008089a6d4        0x4 net/built-in.o
                0x000000008089a6d4                net_ip
 .bss.net_ip_id
                0x000000008089a6d8        0x4 net/built-in.o
 .bss.net_netmask
                0x000000008089a6dc        0x4 net/built-in.o
                0x000000008089a6dc                net_netmask
 .bss.net_pkt_buf
                0x000000008089a6e0     0x1e40 net/built-in.o
 .bss.net_restart_wrap
                0x000000008089c520        0x4 net/built-in.o
                0x000000008089c520                net_restart_wrap
 .bss.net_restarted
                0x000000008089c524        0x4 net/built-in.o
 .bss.net_rx_packet
                0x000000008089c528        0x4 net/built-in.o
                0x000000008089c528                net_rx_packet
 .bss.net_rx_packet_len
                0x000000008089c52c        0x4 net/built-in.o
                0x000000008089c52c                net_rx_packet_len
 .bss.net_rx_packets
                0x000000008089c530       0x10 net/built-in.o
                0x000000008089c530                net_rx_packets
 .bss.net_server_ethaddr
                0x000000008089c540        0x6 net/built-in.o
                0x000000008089c540                net_server_ethaddr
 *fill*         0x000000008089c546        0x2 
 .bss.net_server_ip
                0x000000008089c548        0x4 net/built-in.o
                0x000000008089c548                net_server_ip
 .bss.net_state
                0x000000008089c54c        0x4 net/built-in.o
                0x000000008089c54c                net_state
 .bss.net_try_count
                0x000000008089c550        0x4 net/built-in.o
 .bss.net_tx_packet
                0x000000008089c554        0x4 net/built-in.o
                0x000000008089c554                net_tx_packet
 .bss.push_packet
                0x000000008089c558        0x4 net/built-in.o
                0x000000008089c558                push_packet
 .bss.time_delta
                0x000000008089c55c        0x4 net/built-in.o
 .bss.time_handler
                0x000000008089c560        0x4 net/built-in.o
 .bss.time_start
                0x000000008089c564        0x8 net/built-in.o
 .bss.udp_packet_handler
                0x000000008089c56c        0x4 net/built-in.o
 .bss.dirfh     0x000000008089c570       0x20 net/built-in.o
 .bss.filefh    0x000000008089c590       0x40 net/built-in.o
 .bss.filefh3_length
                0x000000008089c5d0        0x4 net/built-in.o
 .bss.fs_mounted
                0x000000008089c5d4        0x4 net/built-in.o
 .bss.nfs_download_state
                0x000000008089c5d8        0x4 net/built-in.o
 .bss.nfs_filename
                0x000000008089c5dc        0x4 net/built-in.o
 .bss.nfs_len   0x000000008089c5e0        0x4 net/built-in.o
 .bss.nfs_our_port
                0x000000008089c5e4        0x4 net/built-in.o
 .bss.nfs_path  0x000000008089c5e8        0x4 net/built-in.o
 .bss.nfs_path_buff
                0x000000008089c5ec      0x800 net/built-in.o
 .bss.nfs_server_ip
                0x000000008089cdec        0x4 net/built-in.o
 .bss.nfs_server_mount_port
                0x000000008089cdf0        0x4 net/built-in.o
 .bss.nfs_server_port
                0x000000008089cdf4        0x4 net/built-in.o
 .bss.nfs_state
                0x000000008089cdf8        0x4 net/built-in.o
 .bss.nfs_timeout_count
                0x000000008089cdfc        0x4 net/built-in.o
 .bss.rpc_id    0x000000008089ce00        0x4 net/built-in.o
 .bss.net_ping_ip
                0x000000008089ce04        0x4 net/built-in.o
                0x000000008089ce04                net_ping_ip
 .bss.ping_seq_number
                0x000000008089ce08        0x2 net/built-in.o
 .bss.default_filename
                0x000000008089ce0a        0xd net/built-in.o
 *fill*         0x000000008089ce17        0x1 
 .bss.tftp_block_wrap
                0x000000008089ce18        0x4 net/built-in.o
 .bss.tftp_block_wrap_offset
                0x000000008089ce1c        0x4 net/built-in.o
 .bss.tftp_cur_block
                0x000000008089ce20        0x4 net/built-in.o
 .bss.tftp_filename
                0x000000008089ce24       0x80 net/built-in.o
 .bss.tftp_our_port
                0x000000008089cea4        0x4 net/built-in.o
 .bss.tftp_prev_block
                0x000000008089cea8        0x4 net/built-in.o
 .bss.tftp_remote_ip
                0x000000008089ceac        0x4 net/built-in.o
 .bss.tftp_remote_port
                0x000000008089ceb0        0x4 net/built-in.o
 .bss.tftp_state
                0x000000008089ceb4        0x4 net/built-in.o
 .bss.timeout_count
                0x000000008089ceb8        0x4 net/built-in.o
                0x000000008089cebc                . = ALIGN (0x4)
                0x000000008089cebc                __bss_limit = .

.bss_end        0x000000008089cebc        0x0
 *(.__bss_end)
 .__bss_end     0x000000008089cebc        0x0 arch/arm/lib/built-in.o
                0x000000008089cebc                __bss_end

.dynsym         0x00000000808591e0       0x30
 *(.dynsym)
 .dynsym        0x00000000808591e0       0x30 arch/arm/cpu/armv7/start.o

.dynbss         0x0000000080859210        0x0
 *(.dynbss)
 .dynbss        0x0000000080859210        0x0 arch/arm/cpu/armv7/start.o

.dynstr         0x0000000080859210        0x1
 *(.dynstr*)
 .dynstr        0x0000000080859210        0x1 arch/arm/cpu/armv7/start.o

.dynamic        0x0000000080859214       0x90
 *(.dynamic*)
 .dynamic       0x0000000080859214       0x90 arch/arm/cpu/armv7/start.o
                0x0000000080859214                _DYNAMIC

.gnu.hash       0x00000000808592a4       0x18
 *(.gnu.hash)
 .gnu.hash      0x00000000808592a4       0x18 arch/arm/cpu/armv7/start.o

.plt            0x00000000808592bc        0x0
 *(.plt*)
 .plt           0x00000000808592bc        0x0 arch/arm/cpu/armv7/start.o

.interp         0x00000000808592bc       0x11
 *(.interp*)
 .interp        0x00000000808592bc       0x11 arch/arm/cpu/armv7/start.o

.gnu            0x00000000808592d0        0x0
 *(.gnu*)
 .gnu.version_d
                0x00000000808592d0        0x0 arch/arm/cpu/armv7/start.o
 .gnu.version   0x00000000808592d0        0x0 arch/arm/cpu/armv7/start.o
 .gnu.version_r
                0x00000000808592d0        0x0 arch/arm/cpu/armv7/start.o

.ARM.exidx
 *(.ARM.exidx*)
LOAD arch/arm/cpu/armv7/start.o
START GROUP
LOAD arch/arm/cpu/built-in.o
LOAD arch/arm/cpu/armv7/built-in.o
LOAD arch/arm/lib/built-in.o
LOAD arch/arm/mach-omap2/built-in.o
LOAD board/ti/am335x/built-in.o
LOAD board/ti/common/built-in.o
LOAD cmd/built-in.o
LOAD common/built-in.o
LOAD disk/built-in.o
LOAD drivers/built-in.o
LOAD drivers/dma/built-in.o
LOAD drivers/gpio/built-in.o
LOAD drivers/i2c/built-in.o
LOAD drivers/mmc/built-in.o
LOAD drivers/mtd/built-in.o
LOAD drivers/mtd/onenand/built-in.o
LOAD drivers/mtd/spi/built-in.o
LOAD drivers/net/built-in.o
LOAD drivers/net/phy/built-in.o
LOAD drivers/pci/built-in.o
LOAD drivers/power/built-in.o
LOAD drivers/power/battery/built-in.o
LOAD drivers/power/domain/built-in.o
LOAD drivers/power/fuel_gauge/built-in.o
LOAD drivers/power/mfd/built-in.o
LOAD drivers/power/pmic/built-in.o
LOAD drivers/power/regulator/built-in.o
LOAD drivers/serial/built-in.o
LOAD drivers/spi/built-in.o
LOAD drivers/usb/common/built-in.o
LOAD drivers/usb/dwc3/built-in.o
LOAD drivers/usb/emul/built-in.o
LOAD drivers/usb/eth/built-in.o
LOAD drivers/usb/gadget/built-in.o
LOAD drivers/usb/gadget/udc/built-in.o
LOAD drivers/usb/host/built-in.o
LOAD drivers/usb/musb-new/built-in.o
LOAD drivers/usb/musb/built-in.o
LOAD drivers/usb/phy/built-in.o
LOAD drivers/usb/ulpi/built-in.o
LOAD fs/built-in.o
LOAD lib/built-in.o
LOAD net/built-in.o
LOAD test/built-in.o
LOAD test/dm/built-in.o
END GROUP
LOAD arch/arm/lib/eabi_compat.o
LOAD arch/arm/lib/lib.a
OUTPUT(u-boot elf32-littlearm)

.ARM.attributes
                0x0000000000000000       0x2d
 .ARM.attributes
                0x0000000000000000       0x1f arch/arm/cpu/armv7/start.o
 .ARM.attributes
                0x000000000000001f       0x2d board/ti/am335x/built-in.o
 .ARM.attributes
                0x000000000000004c       0x2d arch/arm/cpu/armv7/built-in.o
 .ARM.attributes
                0x0000000000000079       0x2b arch/arm/lib/built-in.o
 .ARM.attributes
                0x00000000000000a4       0x2f arch/arm/mach-omap2/built-in.o
 .ARM.attributes
                0x00000000000000d3       0x2d board/ti/common/built-in.o
 .ARM.attributes
                0x0000000000000100       0x2f cmd/built-in.o
 .ARM.attributes
                0x000000000000012f       0x2f common/built-in.o
 .ARM.attributes
                0x000000000000015e       0x2d disk/built-in.o
 .ARM.attributes
                0x000000000000018b       0x2f drivers/built-in.o
 .ARM.attributes
                0x00000000000001ba       0x2d drivers/gpio/built-in.o
 .ARM.attributes
                0x00000000000001e7       0x2d drivers/i2c/built-in.o
 .ARM.attributes
                0x0000000000000214       0x2d drivers/mmc/built-in.o
 .ARM.attributes
                0x0000000000000241       0x2d drivers/mtd/built-in.o
 .ARM.attributes
                0x000000000000026e       0x2f drivers/mtd/spi/built-in.o
 .ARM.attributes
                0x000000000000029d       0x2d drivers/net/built-in.o
 .ARM.attributes
                0x00000000000002ca       0x2d drivers/net/phy/built-in.o
 .ARM.attributes
                0x00000000000002f7       0x2d drivers/serial/built-in.o
 .ARM.attributes
                0x0000000000000324       0x2d drivers/spi/built-in.o
 .ARM.attributes
                0x0000000000000351       0x2d drivers/usb/gadget/built-in.o
 .ARM.attributes
                0x000000000000037e       0x2d drivers/usb/musb-new/built-in.o
 .ARM.attributes
                0x00000000000003ab       0x2d fs/built-in.o
 .ARM.attributes
                0x00000000000003d8       0x2f lib/built-in.o
 .ARM.attributes
                0x0000000000000407       0x2d net/built-in.o
 .ARM.attributes
                0x0000000000000434       0x2d test/dm/built-in.o
 .ARM.attributes
                0x0000000000000461       0x1f arch/arm/lib/lib.a(lib1funcs.o)
 .ARM.attributes
                0x0000000000000480       0x2d arch/arm/lib/lib.a(div0.o)

.comment        0x0000000000000000       0x21
 .comment       0x0000000000000000       0x21 board/ti/am335x/built-in.o
                                         0x22 (size before relaxing)
 .comment       0x0000000000000021       0x88 arch/arm/cpu/armv7/built-in.o
 .comment       0x0000000000000021      0x154 arch/arm/lib/built-in.o
 .comment       0x0000000000000021      0x1dc arch/arm/mach-omap2/built-in.o
 .comment       0x0000000000000021       0x22 board/ti/common/built-in.o
 .comment       0x0000000000000021      0x594 cmd/built-in.o
 .comment       0x0000000000000021      0x572 common/built-in.o
 .comment       0x0000000000000021       0x88 disk/built-in.o
 .comment       0x0000000000000021      0x286 drivers/built-in.o
 .comment       0x0000000000000021       0x44 drivers/gpio/built-in.o
 .comment       0x0000000000000021       0x44 drivers/i2c/built-in.o
 .comment       0x0000000000000021       0x88 drivers/mmc/built-in.o
 .comment       0x0000000000000021       0x44 drivers/mtd/built-in.o
 .comment       0x0000000000000021       0x88 drivers/mtd/spi/built-in.o
 .comment       0x0000000000000021       0x44 drivers/net/built-in.o
 .comment       0x0000000000000021       0x66 drivers/net/phy/built-in.o
 .comment       0x0000000000000021       0x44 drivers/serial/built-in.o
 .comment       0x0000000000000021       0x44 drivers/spi/built-in.o
 .comment       0x0000000000000021      0x110 drivers/usb/gadget/built-in.o
 .comment       0x0000000000000021       0xcc drivers/usb/musb-new/built-in.o
 .comment       0x0000000000000021      0x132 fs/built-in.o
 .comment       0x0000000000000021      0x72c lib/built-in.o
 .comment       0x0000000000000021      0x132 net/built-in.o
 .comment       0x0000000000000021       0x22 test/dm/built-in.o
 .comment       0x0000000000000021       0x22 arch/arm/lib/lib.a(div0.o)

.note.GNU-stack
                0x0000000000000000        0x0
 .note.GNU-stack
                0x0000000000000000        0x0 board/ti/am335x/built-in.o
 .note.GNU-stack
                0x0000000000000000        0x0 arch/arm/cpu/armv7/built-in.o
 .note.GNU-stack
                0x0000000000000000        0x0 arch/arm/lib/built-in.o
 .note.GNU-stack
                0x0000000000000000        0x0 arch/arm/mach-omap2/built-in.o
 .note.GNU-stack
                0x0000000000000000        0x0 board/ti/common/built-in.o
 .note.GNU-stack
                0x0000000000000000        0x0 cmd/built-in.o
 .note.GNU-stack
                0x0000000000000000        0x0 common/built-in.o
 .note.GNU-stack
                0x0000000000000000        0x0 disk/built-in.o
 .note.GNU-stack
                0x0000000000000000        0x0 drivers/built-in.o
 .note.GNU-stack
                0x0000000000000000        0x0 drivers/gpio/built-in.o
 .note.GNU-stack
                0x0000000000000000        0x0 drivers/i2c/built-in.o
 .note.GNU-stack
                0x0000000000000000        0x0 drivers/mmc/built-in.o
 .note.GNU-stack
                0x0000000000000000        0x0 drivers/mtd/built-in.o
 .note.GNU-stack
                0x0000000000000000        0x0 drivers/mtd/spi/built-in.o
 .note.GNU-stack
                0x0000000000000000        0x0 drivers/net/built-in.o
 .note.GNU-stack
                0x0000000000000000        0x0 drivers/net/phy/built-in.o
 .note.GNU-stack
                0x0000000000000000        0x0 drivers/serial/built-in.o
 .note.GNU-stack
                0x0000000000000000        0x0 drivers/spi/built-in.o
 .note.GNU-stack
                0x0000000000000000        0x0 drivers/usb/gadget/built-in.o
 .note.GNU-stack
                0x0000000000000000        0x0 drivers/usb/musb-new/built-in.o
 .note.GNU-stack
                0x0000000000000000        0x0 fs/built-in.o
 .note.GNU-stack
                0x0000000000000000        0x0 lib/built-in.o
 .note.GNU-stack
                0x0000000000000000        0x0 net/built-in.o
 .note.GNU-stack
                0x0000000000000000        0x0 test/dm/built-in.o
 .note.GNU-stack
                0x0000000000000000        0x0 arch/arm/lib/lib.a(div0.o)

.debug_line     0x0000000000000000    0x71df7
 .debug_line    0x0000000000000000       0x86 arch/arm/cpu/armv7/start.o
 .debug_line    0x0000000000000086      0x812 board/ti/am335x/built-in.o
 .debug_line    0x0000000000000898      0x8ef arch/arm/cpu/armv7/built-in.o
 .debug_line    0x0000000000001187     0x1c20 arch/arm/lib/built-in.o
 .debug_line    0x0000000000002da7     0x2d69 arch/arm/mach-omap2/built-in.o
 .debug_line    0x0000000000005b10      0x5a9 board/ti/common/built-in.o
 .debug_line    0x00000000000060b9     0xefdd cmd/built-in.o
 .debug_line    0x0000000000015096    0x15adb common/built-in.o
 .debug_line    0x000000000002ab71     0x2ae3 disk/built-in.o
 .debug_line    0x000000000002d654     0x6a18 drivers/built-in.o
 .debug_line    0x000000000003406c     0x15ef drivers/gpio/built-in.o
 .debug_line    0x000000000003565b     0x1014 drivers/i2c/built-in.o
 .debug_line    0x000000000003666f     0x31a7 drivers/mmc/built-in.o
 .debug_line    0x0000000000039816     0x120a drivers/mtd/built-in.o
 .debug_line    0x000000000003aa20     0x10d1 drivers/mtd/spi/built-in.o
 .debug_line    0x000000000003baf1     0x14af drivers/net/built-in.o
 .debug_line    0x000000000003cfa0     0x1678 drivers/net/phy/built-in.o
 .debug_line    0x000000000003e618      0xbf8 drivers/serial/built-in.o
 .debug_line    0x000000000003f210      0xaff drivers/spi/built-in.o
 .debug_line    0x000000000003fd0f     0x69a6 drivers/usb/gadget/built-in.o
 .debug_line    0x00000000000466b5     0x76a5 drivers/usb/musb-new/built-in.o
 .debug_line    0x000000000004dd5a     0x9e9e fs/built-in.o
 .debug_line    0x0000000000057bf8    0x14b27 lib/built-in.o
 .debug_line    0x000000000006c71f     0x5355 net/built-in.o
 .debug_line    0x0000000000071a74      0x249 test/dm/built-in.o
 .debug_line    0x0000000000071cbd       0xf1 arch/arm/lib/lib.a(lib1funcs.o)
 .debug_line    0x0000000000071dae       0x49 arch/arm/lib/lib.a(div0.o)

.debug_info     0x0000000000000000   0x1d1e3e
 .debug_info    0x0000000000000000       0x26 arch/arm/cpu/armv7/start.o
 .debug_info    0x0000000000000026     0x2da1 board/ti/am335x/built-in.o
 .debug_info    0x0000000000002dc7     0x3bca arch/arm/cpu/armv7/built-in.o
 .debug_info    0x0000000000006991     0xb5ff arch/arm/lib/built-in.o
 .debug_info    0x0000000000011f90    0x16857 arch/arm/mach-omap2/built-in.o
 .debug_info    0x00000000000287e7     0x345a board/ti/common/built-in.o
 .debug_info    0x000000000002bc41    0x49e90 cmd/built-in.o
 .debug_info    0x0000000000075ad1    0x558bd common/built-in.o
 .debug_info    0x00000000000cb38e     0x97bb disk/built-in.o
 .debug_info    0x00000000000d4b49    0x1f2b9 drivers/built-in.o
 .debug_info    0x00000000000f3e02     0x5800 drivers/gpio/built-in.o
 .debug_info    0x00000000000f9602     0x4c9b drivers/i2c/built-in.o
 .debug_info    0x00000000000fe29d     0xa7cf drivers/mmc/built-in.o
 .debug_info    0x0000000000108a6c     0x44cd drivers/mtd/built-in.o
 .debug_info    0x000000000010cf39     0x5e95 drivers/mtd/spi/built-in.o
 .debug_info    0x0000000000112dce     0x60ab drivers/net/built-in.o
 .debug_info    0x0000000000118e79     0x5399 drivers/net/phy/built-in.o
 .debug_info    0x000000000011e212     0x48c0 drivers/serial/built-in.o
 .debug_info    0x0000000000122ad2     0x38ad drivers/spi/built-in.o
 .debug_info    0x000000000012637f    0x16cd4 drivers/usb/gadget/built-in.o
 .debug_info    0x000000000013d053    0x1d90f drivers/usb/musb-new/built-in.o
 .debug_info    0x000000000015a962    0x1c14d fs/built-in.o
 .debug_info    0x0000000000176aaf    0x466de lib/built-in.o
 .debug_info    0x00000000001bd18d    0x13b73 net/built-in.o
 .debug_info    0x00000000001d0d00     0x10c2 test/dm/built-in.o
 .debug_info    0x00000000001d1dc2       0x22 arch/arm/lib/lib.a(lib1funcs.o)
 .debug_info    0x00000000001d1de4       0x5a arch/arm/lib/lib.a(div0.o)

.debug_abbrev   0x0000000000000000    0x3ba42
 .debug_abbrev  0x0000000000000000       0x14 arch/arm/cpu/armv7/start.o
 .debug_abbrev  0x0000000000000014      0x4c5 board/ti/am335x/built-in.o
 .debug_abbrev  0x00000000000004d9      0xabc arch/arm/cpu/armv7/built-in.o
 .debug_abbrev  0x0000000000000f95     0x1afd arch/arm/lib/built-in.o
 .debug_abbrev  0x0000000000002a92     0x2a95 arch/arm/mach-omap2/built-in.o
 .debug_abbrev  0x0000000000005527      0x475 board/ti/common/built-in.o
 .debug_abbrev  0x000000000000599c     0x9d39 cmd/built-in.o
 .debug_abbrev  0x000000000000f6d5     0xb08f common/built-in.o
 .debug_abbrev  0x000000000001a764     0x153b disk/built-in.o
 .debug_abbrev  0x000000000001bc9f     0x473e drivers/built-in.o
 .debug_abbrev  0x00000000000203dd      0xaa5 drivers/gpio/built-in.o
 .debug_abbrev  0x0000000000020e82      0xa70 drivers/i2c/built-in.o
 .debug_abbrev  0x00000000000218f2     0x14f8 drivers/mmc/built-in.o
 .debug_abbrev  0x0000000000022dea      0x880 drivers/mtd/built-in.o
 .debug_abbrev  0x000000000002366a      0xd57 drivers/mtd/spi/built-in.o
 .debug_abbrev  0x00000000000243c1      0x87c drivers/net/built-in.o
 .debug_abbrev  0x0000000000024c3d      0xb87 drivers/net/phy/built-in.o
 .debug_abbrev  0x00000000000257c4      0x9e0 drivers/serial/built-in.o
 .debug_abbrev  0x00000000000261a4      0x7cc drivers/spi/built-in.o
 .debug_abbrev  0x0000000000026970     0x2a76 drivers/usb/gadget/built-in.o
 .debug_abbrev  0x00000000000293e6     0x253d drivers/usb/musb-new/built-in.o
 .debug_abbrev  0x000000000002b923     0x2bc2 fs/built-in.o
 .debug_abbrev  0x000000000002e4e5     0xa783 lib/built-in.o
 .debug_abbrev  0x0000000000038c68     0x2a8c net/built-in.o
 .debug_abbrev  0x000000000003b6f4      0x2d8 test/dm/built-in.o
 .debug_abbrev  0x000000000003b9cc       0x12 arch/arm/lib/lib.a(lib1funcs.o)
 .debug_abbrev  0x000000000003b9de       0x64 arch/arm/lib/lib.a(div0.o)

.debug_aranges  0x0000000000000000     0x5928
 .debug_aranges
                0x0000000000000000       0x20 arch/arm/cpu/armv7/start.o
 .debug_aranges
                0x0000000000000020       0x48 board/ti/am335x/built-in.o
 .debug_aranges
                0x0000000000000068      0x100 arch/arm/cpu/armv7/built-in.o
 .debug_aranges
                0x0000000000000168      0x300 arch/arm/lib/built-in.o
 .debug_aranges
                0x0000000000000468      0x360 arch/arm/mach-omap2/built-in.o
 .debug_aranges
                0x00000000000007c8       0x88 board/ti/common/built-in.o
 .debug_aranges
                0x0000000000000850      0xa40 cmd/built-in.o
 .debug_aranges
                0x0000000000001290     0x1208 common/built-in.o
 .debug_aranges
                0x0000000000002498      0x198 disk/built-in.o
 .debug_aranges
                0x0000000000002630      0x698 drivers/built-in.o
 .debug_aranges
                0x0000000000002cc8      0x1c0 drivers/gpio/built-in.o
 .debug_aranges
                0x0000000000002e88       0xf8 drivers/i2c/built-in.o
 .debug_aranges
                0x0000000000002f80      0x1c8 drivers/mmc/built-in.o
 .debug_aranges
                0x0000000000003148      0x130 drivers/mtd/built-in.o
 .debug_aranges
                0x0000000000003278       0xc8 drivers/mtd/spi/built-in.o
 .debug_aranges
                0x0000000000003340       0xc8 drivers/net/built-in.o
 .debug_aranges
                0x0000000000003408      0x130 drivers/net/phy/built-in.o
 .debug_aranges
                0x0000000000003538      0x130 drivers/serial/built-in.o
 .debug_aranges
                0x0000000000003668       0x90 drivers/spi/built-in.o
 .debug_aranges
                0x00000000000036f8      0x4b0 drivers/usb/gadget/built-in.o
 .debug_aranges
                0x0000000000003ba8      0x2d0 drivers/usb/musb-new/built-in.o
 .debug_aranges
                0x0000000000003e78      0x4b0 fs/built-in.o
 .debug_aranges
                0x0000000000004328     0x1160 lib/built-in.o
 .debug_aranges
                0x0000000000005488      0x400 net/built-in.o
 .debug_aranges
                0x0000000000005888       0x38 test/dm/built-in.o
 .debug_aranges
                0x00000000000058c0       0x48 arch/arm/lib/lib.a(lib1funcs.o)
 .debug_aranges
                0x0000000000005908       0x20 arch/arm/lib/lib.a(div0.o)

.debug_str      0x0000000000000000    0x1fb58
 .debug_str     0x0000000000000000       0x3f arch/arm/cpu/armv7/start.o
 .debug_str     0x000000000000003f     0x165f board/ti/am335x/built-in.o
                                       0x199d (size before relaxing)
 .debug_str     0x000000000000169e      0x383 arch/arm/cpu/armv7/built-in.o
                                       0x2d12 (size before relaxing)
 .debug_str     0x0000000000001a21     0x17c7 arch/arm/lib/built-in.o
                                       0x85ff (size before relaxing)
 .debug_str     0x00000000000031e8     0x4c28 arch/arm/mach-omap2/built-in.o
                                      0x10981 (size before relaxing)
 .debug_str     0x0000000000007e10      0x18a board/ti/common/built-in.o
                                       0x3369 (size before relaxing)
 .debug_str     0x0000000000007f9a     0x4fc1 cmd/built-in.o
                                      0x29508 (size before relaxing)
 .debug_str     0x000000000000cf5b     0x48a4 common/built-in.o
                                      0x315c7 (size before relaxing)
 .debug_str     0x00000000000117ff      0x94c disk/built-in.o
                                       0x4423 (size before relaxing)
 .debug_str     0x000000000001214b     0x1450 drivers/built-in.o
                                      0x12d5e (size before relaxing)
 .debug_str     0x000000000001359b      0x4e3 drivers/gpio/built-in.o
                                       0x2ec2 (size before relaxing)
 .debug_str     0x0000000000013a7e      0x28e drivers/i2c/built-in.o
                                       0x2377 (size before relaxing)
 .debug_str     0x0000000000013d0c      0x637 drivers/mmc/built-in.o
                                       0x4cbb (size before relaxing)
 .debug_str     0x0000000000014343      0x8d5 drivers/mtd/built-in.o
                                       0x23b5 (size before relaxing)
 .debug_str     0x0000000000014c18      0x3a7 drivers/mtd/spi/built-in.o
                                       0x3983 (size before relaxing)
 .debug_str     0x0000000000014fbf      0x6d0 drivers/net/built-in.o
                                       0x31be (size before relaxing)
 .debug_str     0x000000000001568f      0x32a drivers/net/phy/built-in.o
                                       0x2b7e (size before relaxing)
 .debug_str     0x00000000000159b9      0x3ac drivers/serial/built-in.o
                                       0x2d10 (size before relaxing)
 .debug_str     0x0000000000015d65      0x15e drivers/spi/built-in.o
                                       0x1fc9 (size before relaxing)
 .debug_str     0x0000000000015ec3     0x1d45 drivers/usb/gadget/built-in.o
                                       0xa7c7 (size before relaxing)
 .debug_str     0x0000000000017c08     0x1619 drivers/usb/musb-new/built-in.o
                                       0xc819 (size before relaxing)
 .debug_str     0x0000000000019221     0x1ccd fs/built-in.o
                                       0xba1e (size before relaxing)
 .debug_str     0x000000000001aeee     0x3987 lib/built-in.o
                                      0x2796a (size before relaxing)
 .debug_str     0x000000000001e875     0x1236 net/built-in.o
                                       0xc00a (size before relaxing)
 .debug_str     0x000000000001faab       0x79 test/dm/built-in.o
                                        0xbbe (size before relaxing)
 .debug_str     0x000000000001fb24       0x19 arch/arm/lib/lib.a(lib1funcs.o)
                                         0x3d (size before relaxing)
 .debug_str     0x000000000001fb3d       0x1b arch/arm/lib/lib.a(div0.o)
                                        0x181 (size before relaxing)

.debug_frame    0x0000000000000000    0x101a4
 .debug_frame   0x0000000000000000       0xd8 board/ti/am335x/built-in.o
 .debug_frame   0x00000000000000d8      0x1ec arch/arm/cpu/armv7/built-in.o
 .debug_frame   0x00000000000002c4      0x48c arch/arm/lib/built-in.o
 .debug_frame   0x0000000000000750      0x64c arch/arm/mach-omap2/built-in.o
 .debug_frame   0x0000000000000d9c      0x168 board/ti/common/built-in.o
 .debug_frame   0x0000000000000f04     0x1c80 cmd/built-in.o
 .debug_frame   0x0000000000002b84     0x36f8 common/built-in.o
 .debug_frame   0x000000000000627c      0x5d8 disk/built-in.o
 .debug_frame   0x0000000000006854     0x11e4 drivers/built-in.o
 .debug_frame   0x0000000000007a38      0x5ec drivers/gpio/built-in.o
 .debug_frame   0x0000000000008024      0x324 drivers/i2c/built-in.o
 .debug_frame   0x0000000000008348      0x598 drivers/mmc/built-in.o
 .debug_frame   0x00000000000088e0      0x4e8 drivers/mtd/built-in.o
 .debug_frame   0x0000000000008dc8      0x1f4 drivers/mtd/spi/built-in.o
 .debug_frame   0x0000000000008fbc      0x290 drivers/net/built-in.o
 .debug_frame   0x000000000000924c      0x348 drivers/net/phy/built-in.o
 .debug_frame   0x0000000000009594      0x320 drivers/serial/built-in.o
 .debug_frame   0x00000000000098b4      0x154 drivers/spi/built-in.o
 .debug_frame   0x0000000000009a08      0xd9c drivers/usb/gadget/built-in.o
 .debug_frame   0x000000000000a7a4      0x944 drivers/usb/musb-new/built-in.o
 .debug_frame   0x000000000000b0e8     0x1098 fs/built-in.o
 .debug_frame   0x000000000000c180     0x333c lib/built-in.o
 .debug_frame   0x000000000000f4bc      0xc50 net/built-in.o
 .debug_frame   0x000000000001010c       0x78 test/dm/built-in.o
 .debug_frame   0x0000000000010184       0x20 arch/arm/lib/lib.a(div0.o)

.debug_loc      0x0000000000000000    0xb1bcb
 .debug_loc     0x0000000000000000      0x746 board/ti/am335x/built-in.o
 .debug_loc     0x0000000000000746      0x583 arch/arm/cpu/armv7/built-in.o
 .debug_loc     0x0000000000000cc9      0xe07 arch/arm/lib/built-in.o
 .debug_loc     0x0000000000001ad0     0x2644 arch/arm/mach-omap2/built-in.o
 .debug_loc     0x0000000000004114      0x67b board/ti/common/built-in.o
 .debug_loc     0x000000000000478f    0x1869e cmd/built-in.o
 .debug_loc     0x000000000001ce2d    0x1f8aa common/built-in.o
 .debug_loc     0x000000000003c6d7     0x397d disk/built-in.o
 .debug_loc     0x0000000000040054     0x873c drivers/built-in.o
 .debug_loc     0x0000000000048790     0x235b drivers/gpio/built-in.o
 .debug_loc     0x000000000004aaeb     0x26ea drivers/i2c/built-in.o
 .debug_loc     0x000000000004d1d5     0x3d73 drivers/mmc/built-in.o
 .debug_loc     0x0000000000050f48     0x1f5b drivers/mtd/built-in.o
 .debug_loc     0x0000000000052ea3     0x15a8 drivers/mtd/spi/built-in.o
 .debug_loc     0x000000000005444b     0x262f drivers/net/built-in.o
 .debug_loc     0x0000000000056a7a     0x1fb1 drivers/net/phy/built-in.o
 .debug_loc     0x0000000000058a2b      0xeb2 drivers/serial/built-in.o
 .debug_loc     0x00000000000598dd     0x1469 drivers/spi/built-in.o
 .debug_loc     0x000000000005ad46     0x9f02 drivers/usb/gadget/built-in.o
 .debug_loc     0x0000000000064c48     0xe415 drivers/usb/musb-new/built-in.o
 .debug_loc     0x000000000007305d    0x11b26 fs/built-in.o
 .debug_loc     0x0000000000084b83    0x26b1f lib/built-in.o
 .debug_loc     0x00000000000ab6a2     0x627b net/built-in.o
 .debug_loc     0x00000000000b191d      0x2ae test/dm/built-in.o

.debug_ranges   0x0000000000000000    0x11878
 .debug_ranges  0x0000000000000000      0x178 board/ti/am335x/built-in.o
 .debug_ranges  0x0000000000000178      0x108 arch/arm/cpu/armv7/built-in.o
 .debug_ranges  0x0000000000000280      0x458 arch/arm/lib/built-in.o
 .debug_ranges  0x00000000000006d8      0x7c0 arch/arm/mach-omap2/built-in.o
 .debug_ranges  0x0000000000000e98       0x90 board/ti/common/built-in.o
 .debug_ranges  0x0000000000000f28     0x2180 cmd/built-in.o
 .debug_ranges  0x00000000000030a8     0x31f8 common/built-in.o
 .debug_ranges  0x00000000000062a0      0x850 disk/built-in.o
 .debug_ranges  0x0000000000006af0      0xec0 drivers/built-in.o
 .debug_ranges  0x00000000000079b0      0x2c8 drivers/gpio/built-in.o
 .debug_ranges  0x0000000000007c78      0x4f0 drivers/i2c/built-in.o
 .debug_ranges  0x0000000000008168      0x760 drivers/mmc/built-in.o
 .debug_ranges  0x00000000000088c8      0x170 drivers/mtd/built-in.o
 .debug_ranges  0x0000000000008a38      0x218 drivers/mtd/spi/built-in.o
 .debug_ranges  0x0000000000008c50      0x5d8 drivers/net/built-in.o
 .debug_ranges  0x0000000000009228      0x4e8 drivers/net/phy/built-in.o
 .debug_ranges  0x0000000000009710      0x1e8 drivers/serial/built-in.o
 .debug_ranges  0x00000000000098f8      0x2d8 drivers/spi/built-in.o
 .debug_ranges  0x0000000000009bd0     0x1220 drivers/usb/gadget/built-in.o
 .debug_ranges  0x000000000000adf0     0x1a10 drivers/usb/musb-new/built-in.o
 .debug_ranges  0x000000000000c800     0x1720 fs/built-in.o
 .debug_ranges  0x000000000000df20     0x2bb0 lib/built-in.o
 .debug_ranges  0x0000000000010ad0      0xd30 net/built-in.o
 .debug_ranges  0x0000000000011800       0x28 test/dm/built-in.o
 .debug_ranges  0x0000000000011828       0x40 arch/arm/lib/lib.a(lib1funcs.o)
 .debug_ranges  0x0000000000011868       0x10 arch/arm/lib/lib.a(div0.o)
